
game:     file format elf32-i386


Disassembly of section .init:

08048bb4 <_init>:
 8048bb4:	53                   	push   %ebx
 8048bb5:	83 ec 08             	sub    $0x8,%esp
 8048bb8:	e8 00 00 00 00       	call   8048bbd <_init+0x9>
 8048bbd:	5b                   	pop    %ebx
 8048bbe:	81 c3 37 94 00 00    	add    $0x9437,%ebx
 8048bc4:	8b 83 fc ff ff ff    	mov    -0x4(%ebx),%eax
 8048bca:	85 c0                	test   %eax,%eax
 8048bcc:	74 05                	je     8048bd3 <_init+0x1f>
 8048bce:	e8 ad 00 00 00       	call   8048c80 <__gmon_start__@plt>
 8048bd3:	e8 b8 03 00 00       	call   8048f90 <frame_dummy>
 8048bd8:	e8 c3 4a 00 00       	call   804d6a0 <__do_global_ctors_aux>
 8048bdd:	83 c4 08             	add    $0x8,%esp
 8048be0:	5b                   	pop    %ebx
 8048be1:	c3                   	ret    

Disassembly of section .plt:

08048bf0 <fmod@plt-0x10>:
 8048bf0:	ff 35 f8 1f 05 08    	pushl  0x8051ff8
 8048bf6:	ff 25 fc 1f 05 08    	jmp    *0x8051ffc
 8048bfc:	00 00                	add    %al,(%eax)
	...

08048c00 <fmod@plt>:
 8048c00:	ff 25 00 20 05 08    	jmp    *0x8052000
 8048c06:	68 00 00 00 00       	push   $0x0
 8048c0b:	e9 e0 ff ff ff       	jmp    8048bf0 <_init+0x3c>

08048c10 <_ZNSsaSEPKc@plt>:
 8048c10:	ff 25 04 20 05 08    	jmp    *0x8052004
 8048c16:	68 08 00 00 00       	push   $0x8
 8048c1b:	e9 d0 ff ff ff       	jmp    8048bf0 <_init+0x3c>

08048c20 <_ZNSsC1Ev@plt>:
 8048c20:	ff 25 08 20 05 08    	jmp    *0x8052008
 8048c26:	68 10 00 00 00       	push   $0x10
 8048c2b:	e9 c0 ff ff ff       	jmp    8048bf0 <_init+0x3c>

08048c30 <__cxa_atexit@plt>:
 8048c30:	ff 25 0c 20 05 08    	jmp    *0x805200c
 8048c36:	68 18 00 00 00       	push   $0x18
 8048c3b:	e9 b0 ff ff ff       	jmp    8048bf0 <_init+0x3c>

08048c40 <memcmp@plt>:
 8048c40:	ff 25 10 20 05 08    	jmp    *0x8052010
 8048c46:	68 20 00 00 00       	push   $0x20
 8048c4b:	e9 a0 ff ff ff       	jmp    8048bf0 <_init+0x3c>

08048c50 <waddch@plt>:
 8048c50:	ff 25 14 20 05 08    	jmp    *0x8052014
 8048c56:	68 28 00 00 00       	push   $0x28
 8048c5b:	e9 90 ff ff ff       	jmp    8048bf0 <_init+0x3c>

08048c60 <keypad@plt>:
 8048c60:	ff 25 18 20 05 08    	jmp    *0x8052018
 8048c66:	68 30 00 00 00       	push   $0x30
 8048c6b:	e9 80 ff ff ff       	jmp    8048bf0 <_init+0x3c>

08048c70 <__cxa_guard_acquire@plt>:
 8048c70:	ff 25 1c 20 05 08    	jmp    *0x805201c
 8048c76:	68 38 00 00 00       	push   $0x38
 8048c7b:	e9 70 ff ff ff       	jmp    8048bf0 <_init+0x3c>

08048c80 <__gmon_start__@plt>:
 8048c80:	ff 25 20 20 05 08    	jmp    *0x8052020
 8048c86:	68 40 00 00 00       	push   $0x40
 8048c8b:	e9 60 ff ff ff       	jmp    8048bf0 <_init+0x3c>

08048c90 <_ZNKSs5c_strEv@plt>:
 8048c90:	ff 25 24 20 05 08    	jmp    *0x8052024
 8048c96:	68 48 00 00 00       	push   $0x48
 8048c9b:	e9 50 ff ff ff       	jmp    8048bf0 <_init+0x3c>

08048ca0 <_ZdlPv@plt>:
 8048ca0:	ff 25 28 20 05 08    	jmp    *0x8052028
 8048ca6:	68 50 00 00 00       	push   $0x50
 8048cab:	e9 40 ff ff ff       	jmp    8048bf0 <_init+0x3c>

08048cb0 <endwin@plt>:
 8048cb0:	ff 25 2c 20 05 08    	jmp    *0x805202c
 8048cb6:	68 58 00 00 00       	push   $0x58
 8048cbb:	e9 30 ff ff ff       	jmp    8048bf0 <_init+0x3c>

08048cc0 <_ZNKSs4sizeEv@plt>:
 8048cc0:	ff 25 30 20 05 08    	jmp    *0x8052030
 8048cc6:	68 60 00 00 00       	push   $0x60
 8048ccb:	e9 20 ff ff ff       	jmp    8048bf0 <_init+0x3c>

08048cd0 <nodelay@plt>:
 8048cd0:	ff 25 34 20 05 08    	jmp    *0x8052034
 8048cd6:	68 68 00 00 00       	push   $0x68
 8048cdb:	e9 10 ff ff ff       	jmp    8048bf0 <_init+0x3c>

08048ce0 <__libc_start_main@plt>:
 8048ce0:	ff 25 38 20 05 08    	jmp    *0x8052038
 8048ce6:	68 70 00 00 00       	push   $0x70
 8048ceb:	e9 00 ff ff ff       	jmp    8048bf0 <_init+0x3c>

08048cf0 <floor@plt>:
 8048cf0:	ff 25 3c 20 05 08    	jmp    *0x805203c
 8048cf6:	68 78 00 00 00       	push   $0x78
 8048cfb:	e9 f0 fe ff ff       	jmp    8048bf0 <_init+0x3c>

08048d00 <_ZNSsC1ERKSs@plt>:
 8048d00:	ff 25 40 20 05 08    	jmp    *0x8052040
 8048d06:	68 80 00 00 00       	push   $0x80
 8048d0b:	e9 e0 fe ff ff       	jmp    8048bf0 <_init+0x3c>

08048d10 <initscr@plt>:
 8048d10:	ff 25 44 20 05 08    	jmp    *0x8052044
 8048d16:	68 88 00 00 00       	push   $0x88
 8048d1b:	e9 d0 fe ff ff       	jmp    8048bf0 <_init+0x3c>

08048d20 <usleep@plt>:
 8048d20:	ff 25 48 20 05 08    	jmp    *0x8052048
 8048d26:	68 90 00 00 00       	push   $0x90
 8048d2b:	e9 c0 fe ff ff       	jmp    8048bf0 <_init+0x3c>

08048d30 <gettimeofday@plt>:
 8048d30:	ff 25 4c 20 05 08    	jmp    *0x805204c
 8048d36:	68 98 00 00 00       	push   $0x98
 8048d3b:	e9 b0 fe ff ff       	jmp    8048bf0 <_init+0x3c>

08048d40 <_ZNSsD1Ev@plt>:
 8048d40:	ff 25 50 20 05 08    	jmp    *0x8052050
 8048d46:	68 a0 00 00 00       	push   $0xa0
 8048d4b:	e9 a0 fe ff ff       	jmp    8048bf0 <_init+0x3c>

08048d50 <wdelch@plt>:
 8048d50:	ff 25 54 20 05 08    	jmp    *0x8052054
 8048d56:	68 a8 00 00 00       	push   $0xa8
 8048d5b:	e9 90 fe ff ff       	jmp    8048bf0 <_init+0x3c>

08048d60 <getmouse@plt>:
 8048d60:	ff 25 58 20 05 08    	jmp    *0x8052058
 8048d66:	68 b0 00 00 00       	push   $0xb0
 8048d6b:	e9 80 fe ff ff       	jmp    8048bf0 <_init+0x3c>

08048d70 <mousemask@plt>:
 8048d70:	ff 25 5c 20 05 08    	jmp    *0x805205c
 8048d76:	68 b8 00 00 00       	push   $0xb8
 8048d7b:	e9 70 fe ff ff       	jmp    8048bf0 <_init+0x3c>

08048d80 <nonl@plt>:
 8048d80:	ff 25 60 20 05 08    	jmp    *0x8052060
 8048d86:	68 c0 00 00 00       	push   $0xc0
 8048d8b:	e9 60 fe ff ff       	jmp    8048bf0 <_init+0x3c>

08048d90 <refresh@plt>:
 8048d90:	ff 25 64 20 05 08    	jmp    *0x8052064
 8048d96:	68 c8 00 00 00       	push   $0xc8
 8048d9b:	e9 50 fe ff ff       	jmp    8048bf0 <_init+0x3c>

08048da0 <fflush@plt>:
 8048da0:	ff 25 68 20 05 08    	jmp    *0x8052068
 8048da6:	68 d0 00 00 00       	push   $0xd0
 8048dab:	e9 40 fe ff ff       	jmp    8048bf0 <_init+0x3c>

08048db0 <fclose@plt>:
 8048db0:	ff 25 6c 20 05 08    	jmp    *0x805206c
 8048db6:	68 d8 00 00 00       	push   $0xd8
 8048dbb:	e9 30 fe ff ff       	jmp    8048bf0 <_init+0x3c>

08048dc0 <__cxa_guard_release@plt>:
 8048dc0:	ff 25 70 20 05 08    	jmp    *0x8052070
 8048dc6:	68 e0 00 00 00       	push   $0xe0
 8048dcb:	e9 20 fe ff ff       	jmp    8048bf0 <_init+0x3c>

08048dd0 <fopen@plt>:
 8048dd0:	ff 25 74 20 05 08    	jmp    *0x8052074
 8048dd6:	68 e8 00 00 00       	push   $0xe8
 8048ddb:	e9 10 fe ff ff       	jmp    8048bf0 <_init+0x3c>

08048de0 <_ZNKSs7compareEPKc@plt>:
 8048de0:	ff 25 78 20 05 08    	jmp    *0x8052078
 8048de6:	68 f0 00 00 00       	push   $0xf0
 8048deb:	e9 00 fe ff ff       	jmp    8048bf0 <_init+0x3c>

08048df0 <_ZNSsC1EPKcRKSaIcE@plt>:
 8048df0:	ff 25 7c 20 05 08    	jmp    *0x805207c
 8048df6:	68 f8 00 00 00       	push   $0xf8
 8048dfb:	e9 f0 fd ff ff       	jmp    8048bf0 <_init+0x3c>

08048e00 <cbreak@plt>:
 8048e00:	ff 25 80 20 05 08    	jmp    *0x8052080
 8048e06:	68 00 01 00 00       	push   $0x100
 8048e0b:	e9 e0 fd ff ff       	jmp    8048bf0 <_init+0x3c>

08048e10 <move@plt>:
 8048e10:	ff 25 84 20 05 08    	jmp    *0x8052084
 8048e16:	68 08 01 00 00       	push   $0x108
 8048e1b:	e9 d0 fd ff ff       	jmp    8048bf0 <_init+0x3c>

08048e20 <_Znwj@plt>:
 8048e20:	ff 25 88 20 05 08    	jmp    *0x8052088
 8048e26:	68 10 01 00 00       	push   $0x110
 8048e2b:	e9 c0 fd ff ff       	jmp    8048bf0 <_init+0x3c>

08048e30 <wgetch@plt>:
 8048e30:	ff 25 8c 20 05 08    	jmp    *0x805208c
 8048e36:	68 18 01 00 00       	push   $0x118
 8048e3b:	e9 b0 fd ff ff       	jmp    8048bf0 <_init+0x3c>

08048e40 <fwrite@plt>:
 8048e40:	ff 25 90 20 05 08    	jmp    *0x8052090
 8048e46:	68 20 01 00 00       	push   $0x120
 8048e4b:	e9 a0 fd ff ff       	jmp    8048bf0 <_init+0x3c>

08048e50 <_ZNKSs4dataEv@plt>:
 8048e50:	ff 25 94 20 05 08    	jmp    *0x8052094
 8048e56:	68 28 01 00 00       	push   $0x128
 8048e5b:	e9 90 fd ff ff       	jmp    8048bf0 <_init+0x3c>

08048e60 <_ZNSaIcED1Ev@plt>:
 8048e60:	ff 25 98 20 05 08    	jmp    *0x8052098
 8048e66:	68 30 01 00 00       	push   $0x130
 8048e6b:	e9 80 fd ff ff       	jmp    8048bf0 <_init+0x3c>

08048e70 <curs_set@plt>:
 8048e70:	ff 25 9c 20 05 08    	jmp    *0x805209c
 8048e76:	68 38 01 00 00       	push   $0x138
 8048e7b:	e9 70 fd ff ff       	jmp    8048bf0 <_init+0x3c>

08048e80 <vfprintf@plt>:
 8048e80:	ff 25 a0 20 05 08    	jmp    *0x80520a0
 8048e86:	68 40 01 00 00       	push   $0x140
 8048e8b:	e9 60 fd ff ff       	jmp    8048bf0 <_init+0x3c>

08048e90 <__cxa_guard_abort@plt>:
 8048e90:	ff 25 a4 20 05 08    	jmp    *0x80520a4
 8048e96:	68 48 01 00 00       	push   $0x148
 8048e9b:	e9 50 fd ff ff       	jmp    8048bf0 <_init+0x3c>

08048ea0 <_ZNSaIcEC1Ev@plt>:
 8048ea0:	ff 25 a8 20 05 08    	jmp    *0x80520a8
 8048ea6:	68 50 01 00 00       	push   $0x150
 8048eab:	e9 40 fd ff ff       	jmp    8048bf0 <_init+0x3c>

08048eb0 <__gxx_personality_v0@plt>:
 8048eb0:	ff 25 ac 20 05 08    	jmp    *0x80520ac
 8048eb6:	68 58 01 00 00       	push   $0x158
 8048ebb:	e9 30 fd ff ff       	jmp    8048bf0 <_init+0x3c>

08048ec0 <_Unwind_Resume@plt>:
 8048ec0:	ff 25 b0 20 05 08    	jmp    *0x80520b0
 8048ec6:	68 60 01 00 00       	push   $0x160
 8048ecb:	e9 20 fd ff ff       	jmp    8048bf0 <_init+0x3c>

08048ed0 <noecho@plt>:
 8048ed0:	ff 25 b4 20 05 08    	jmp    *0x80520b4
 8048ed6:	68 68 01 00 00       	push   $0x168
 8048edb:	e9 10 fd ff ff       	jmp    8048bf0 <_init+0x3c>

08048ee0 <exit@plt>:
 8048ee0:	ff 25 b8 20 05 08    	jmp    *0x80520b8
 8048ee6:	68 70 01 00 00       	push   $0x170
 8048eeb:	e9 00 fd ff ff       	jmp    8048bf0 <_init+0x3c>

08048ef0 <_ZNSsaSERKSs@plt>:
 8048ef0:	ff 25 bc 20 05 08    	jmp    *0x80520bc
 8048ef6:	68 78 01 00 00       	push   $0x178
 8048efb:	e9 f0 fc ff ff       	jmp    8048bf0 <_init+0x3c>

Disassembly of section .text:

08048f00 <_start>:
 8048f00:	31 ed                	xor    %ebp,%ebp
 8048f02:	5e                   	pop    %esi
 8048f03:	89 e1                	mov    %esp,%ecx
 8048f05:	83 e4 f0             	and    $0xfffffff0,%esp
 8048f08:	50                   	push   %eax
 8048f09:	54                   	push   %esp
 8048f0a:	52                   	push   %edx
 8048f0b:	68 90 d6 04 08       	push   $0x804d690
 8048f10:	68 20 d6 04 08       	push   $0x804d620
 8048f15:	51                   	push   %ecx
 8048f16:	56                   	push   %esi
 8048f17:	68 b4 8f 04 08       	push   $0x8048fb4
 8048f1c:	e8 bf fd ff ff       	call   8048ce0 <__libc_start_main@plt>
 8048f21:	f4                   	hlt    
 8048f22:	90                   	nop
 8048f23:	90                   	nop
 8048f24:	90                   	nop
 8048f25:	90                   	nop
 8048f26:	90                   	nop
 8048f27:	90                   	nop
 8048f28:	90                   	nop
 8048f29:	90                   	nop
 8048f2a:	90                   	nop
 8048f2b:	90                   	nop
 8048f2c:	90                   	nop
 8048f2d:	90                   	nop
 8048f2e:	90                   	nop
 8048f2f:	90                   	nop

08048f30 <__do_global_dtors_aux>:
 8048f30:	55                   	push   %ebp
 8048f31:	89 e5                	mov    %esp,%ebp
 8048f33:	53                   	push   %ebx
 8048f34:	83 ec 04             	sub    $0x4,%esp
 8048f37:	80 3d 6c 21 05 08 00 	cmpb   $0x0,0x805216c
 8048f3e:	75 3f                	jne    8048f7f <__do_global_dtors_aux+0x4f>
 8048f40:	a1 70 21 05 08       	mov    0x8052170,%eax
 8048f45:	bb f8 1e 05 08       	mov    $0x8051ef8,%ebx
 8048f4a:	81 eb f4 1e 05 08    	sub    $0x8051ef4,%ebx
 8048f50:	c1 fb 02             	sar    $0x2,%ebx
 8048f53:	83 eb 01             	sub    $0x1,%ebx
 8048f56:	39 d8                	cmp    %ebx,%eax
 8048f58:	73 1e                	jae    8048f78 <__do_global_dtors_aux+0x48>
 8048f5a:	8d b6 00 00 00 00    	lea    0x0(%esi),%esi
 8048f60:	83 c0 01             	add    $0x1,%eax
 8048f63:	a3 70 21 05 08       	mov    %eax,0x8052170
 8048f68:	ff 14 85 f4 1e 05 08 	call   *0x8051ef4(,%eax,4)
 8048f6f:	a1 70 21 05 08       	mov    0x8052170,%eax
 8048f74:	39 d8                	cmp    %ebx,%eax
 8048f76:	72 e8                	jb     8048f60 <__do_global_dtors_aux+0x30>
 8048f78:	c6 05 6c 21 05 08 01 	movb   $0x1,0x805216c
 8048f7f:	83 c4 04             	add    $0x4,%esp
 8048f82:	5b                   	pop    %ebx
 8048f83:	5d                   	pop    %ebp
 8048f84:	c3                   	ret    
 8048f85:	8d 74 26 00          	lea    0x0(%esi,%eiz,1),%esi
 8048f89:	8d bc 27 00 00 00 00 	lea    0x0(%edi,%eiz,1),%edi

08048f90 <frame_dummy>:
 8048f90:	55                   	push   %ebp
 8048f91:	89 e5                	mov    %esp,%ebp
 8048f93:	83 ec 18             	sub    $0x18,%esp
 8048f96:	a1 fc 1e 05 08       	mov    0x8051efc,%eax
 8048f9b:	85 c0                	test   %eax,%eax
 8048f9d:	74 12                	je     8048fb1 <frame_dummy+0x21>
 8048f9f:	b8 00 00 00 00       	mov    $0x0,%eax
 8048fa4:	85 c0                	test   %eax,%eax
 8048fa6:	74 09                	je     8048fb1 <frame_dummy+0x21>
 8048fa8:	c7 04 24 fc 1e 05 08 	movl   $0x8051efc,(%esp)
 8048faf:	ff d0                	call   *%eax
 8048fb1:	c9                   	leave  
 8048fb2:	c3                   	ret    
 8048fb3:	90                   	nop

08048fb4 <main>:
 8048fb4:	55                   	push   %ebp
 8048fb5:	89 e5                	mov    %esp,%ebp
 8048fb7:	56                   	push   %esi
 8048fb8:	53                   	push   %ebx
 8048fb9:	83 e4 f0             	and    $0xfffffff0,%esp
 8048fbc:	83 ec 40             	sub    $0x40,%esp
 8048fbf:	e8 f4 28 00 00       	call   804b8b8 <_ZN10LogManager11getInstanceEv>
 8048fc4:	89 44 24 24          	mov    %eax,0x24(%esp)
 8048fc8:	c7 44 24 04 01 00 00 	movl   $0x1,0x4(%esp)
 8048fcf:	00 
 8048fd0:	8b 44 24 24          	mov    0x24(%esp),%eax
 8048fd4:	89 04 24             	mov    %eax,(%esp)
 8048fd7:	e8 6a 29 00 00       	call   804b946 <_ZN10LogManager7startUpEb>
 8048fdc:	c7 44 24 08 01 00 00 	movl   $0x1,0x8(%esp)
 8048fe3:	00 
 8048fe4:	c7 44 24 04 f0 d6 04 	movl   $0x804d6f0,0x4(%esp)
 8048feb:	08 
 8048fec:	8b 44 24 24          	mov    0x24(%esp),%eax
 8048ff0:	89 04 24             	mov    %eax,(%esp)
 8048ff3:	e8 da 29 00 00       	call   804b9d2 <_ZN10LogManager8writeLogEPKcz>
 8048ff8:	e8 6b 1b 00 00       	call   804ab68 <_ZN12WorldManager11getInstanceEv>
 8048ffd:	89 44 24 28          	mov    %eax,0x28(%esp)
 8049001:	c7 44 24 04 12 d7 04 	movl   $0x804d712,0x4(%esp)
 8049008:	08 
 8049009:	8b 44 24 24          	mov    0x24(%esp),%eax
 804900d:	89 04 24             	mov    %eax,(%esp)
 8049010:	e8 bd 29 00 00       	call   804b9d2 <_ZN10LogManager8writeLogEPKcz>
 8049015:	8b 44 24 28          	mov    0x28(%esp),%eax
 8049019:	8b 00                	mov    (%eax),%eax
 804901b:	83 c0 04             	add    $0x4,%eax
 804901e:	8b 10                	mov    (%eax),%edx
 8049020:	8b 44 24 28          	mov    0x28(%esp),%eax
 8049024:	89 04 24             	mov    %eax,(%esp)
 8049027:	ff d2                	call   *%edx
 8049029:	e8 ca 13 00 00       	call   804a3f8 <_ZN11GameManager11getInstanceEv>
 804902e:	89 44 24 2c          	mov    %eax,0x2c(%esp)
 8049032:	e8 db 17 00 00       	call   804a812 <_ZN15GraphicsManager11getInstanceEv>
 8049037:	89 44 24 30          	mov    %eax,0x30(%esp)
 804903b:	8b 44 24 30          	mov    0x30(%esp),%eax
 804903f:	8b 00                	mov    (%eax),%eax
 8049041:	83 c0 04             	add    $0x4,%eax
 8049044:	8b 10                	mov    (%eax),%edx
 8049046:	8b 44 24 30          	mov    0x30(%esp),%eax
 804904a:	89 04 24             	mov    %eax,(%esp)
 804904d:	ff d2                	call   *%edx
 804904f:	e8 d4 10 00 00       	call   804a128 <_ZN12InputManager11getInstanceEv>
 8049054:	89 44 24 34          	mov    %eax,0x34(%esp)
 8049058:	8b 44 24 34          	mov    0x34(%esp),%eax
 804905c:	8b 00                	mov    (%eax),%eax
 804905e:	83 c0 04             	add    $0x4,%eax
 8049061:	8b 10                	mov    (%eax),%edx
 8049063:	8b 44 24 34          	mov    0x34(%esp),%eax
 8049067:	89 04 24             	mov    %eax,(%esp)
 804906a:	ff d2                	call   *%edx
 804906c:	c7 04 24 d4 01 00 00 	movl   $0x1d4,(%esp)
 8049073:	e8 a8 fd ff ff       	call   8048e20 <_Znwj@plt>
 8049078:	89 c3                	mov    %eax,%ebx
 804907a:	89 1c 24             	mov    %ebx,(%esp)
 804907d:	e8 1e 3c 00 00       	call   804cca0 <_ZN6PlayerC1Ev>
 8049082:	89 5c 24 38          	mov    %ebx,0x38(%esp)
 8049086:	8b 44 24 38          	mov    0x38(%esp),%eax
 804908a:	89 04 24             	mov    %eax,(%esp)
 804908d:	e8 36 2d 00 00       	call   804bdc8 <_ZN6Object10addToWorldEv>
 8049092:	8d 44 24 3e          	lea    0x3e(%esp),%eax
 8049096:	89 04 24             	mov    %eax,(%esp)
 8049099:	e8 02 fe ff ff       	call   8048ea0 <_ZNSaIcEC1Ev@plt>
 804909e:	8d 44 24 3e          	lea    0x3e(%esp),%eax
 80490a2:	89 44 24 08          	mov    %eax,0x8(%esp)
 80490a6:	c7 44 24 04 2b d7 04 	movl   $0x804d72b,0x4(%esp)
 80490ad:	08 
 80490ae:	8d 44 24 1c          	lea    0x1c(%esp),%eax
 80490b2:	89 04 24             	mov    %eax,(%esp)
 80490b5:	e8 36 fd ff ff       	call   8048df0 <_ZNSsC1EPKcRKSaIcE@plt>
 80490ba:	8b 44 24 38          	mov    0x38(%esp),%eax
 80490be:	8d 54 24 1c          	lea    0x1c(%esp),%edx
 80490c2:	89 54 24 04          	mov    %edx,0x4(%esp)
 80490c6:	89 04 24             	mov    %eax,(%esp)
 80490c9:	e8 a8 2f 00 00       	call   804c076 <_ZN6Object16registerInterestESs>
 80490ce:	8d 44 24 1c          	lea    0x1c(%esp),%eax
 80490d2:	89 04 24             	mov    %eax,(%esp)
 80490d5:	e8 66 fc ff ff       	call   8048d40 <_ZNSsD1Ev@plt>
 80490da:	8d 44 24 3e          	lea    0x3e(%esp),%eax
 80490de:	89 04 24             	mov    %eax,(%esp)
 80490e1:	e8 7a fd ff ff       	call   8048e60 <_ZNSaIcED1Ev@plt>
 80490e6:	8d 44 24 3f          	lea    0x3f(%esp),%eax
 80490ea:	89 04 24             	mov    %eax,(%esp)
 80490ed:	e8 ae fd ff ff       	call   8048ea0 <_ZNSaIcEC1Ev@plt>
 80490f2:	8d 44 24 3f          	lea    0x3f(%esp),%eax
 80490f6:	89 44 24 08          	mov    %eax,0x8(%esp)
 80490fa:	c7 44 24 04 34 d7 04 	movl   $0x804d734,0x4(%esp)
 8049101:	08 
 8049102:	8d 44 24 20          	lea    0x20(%esp),%eax
 8049106:	89 04 24             	mov    %eax,(%esp)
 8049109:	e8 e2 fc ff ff       	call   8048df0 <_ZNSsC1EPKcRKSaIcE@plt>
 804910e:	8b 44 24 38          	mov    0x38(%esp),%eax
 8049112:	8d 54 24 20          	lea    0x20(%esp),%edx
 8049116:	89 54 24 04          	mov    %edx,0x4(%esp)
 804911a:	89 04 24             	mov    %eax,(%esp)
 804911d:	e8 54 2f 00 00       	call   804c076 <_ZN6Object16registerInterestESs>
 8049122:	8d 44 24 20          	lea    0x20(%esp),%eax
 8049126:	89 04 24             	mov    %eax,(%esp)
 8049129:	e8 12 fc ff ff       	call   8048d40 <_ZNSsD1Ev@plt>
 804912e:	8d 44 24 3f          	lea    0x3f(%esp),%eax
 8049132:	89 04 24             	mov    %eax,(%esp)
 8049135:	e8 26 fd ff ff       	call   8048e60 <_ZNSaIcED1Ev@plt>
 804913a:	8b 44 24 38          	mov    0x38(%esp),%eax
 804913e:	89 44 24 08          	mov    %eax,0x8(%esp)
 8049142:	c7 44 24 04 38 d7 04 	movl   $0x804d738,0x4(%esp)
 8049149:	08 
 804914a:	8b 44 24 24          	mov    0x24(%esp),%eax
 804914e:	89 04 24             	mov    %eax,(%esp)
 8049151:	e8 7c 28 00 00       	call   804b9d2 <_ZN10LogManager8writeLogEPKcz>
 8049156:	8b 44 24 2c          	mov    0x2c(%esp),%eax
 804915a:	89 04 24             	mov    %eax,(%esp)
 804915d:	e8 24 13 00 00       	call   804a486 <_ZN11GameManager3runEv>
 8049162:	8b 44 24 30          	mov    0x30(%esp),%eax
 8049166:	8b 00                	mov    (%eax),%eax
 8049168:	83 c0 08             	add    $0x8,%eax
 804916b:	8b 10                	mov    (%eax),%edx
 804916d:	8b 44 24 30          	mov    0x30(%esp),%eax
 8049171:	89 04 24             	mov    %eax,(%esp)
 8049174:	ff d2                	call   *%edx
 8049176:	b8 00 00 00 00       	mov    $0x0,%eax
 804917b:	8d 65 f8             	lea    -0x8(%ebp),%esp
 804917e:	5b                   	pop    %ebx
 804917f:	5e                   	pop    %esi
 8049180:	5d                   	pop    %ebp
 8049181:	c3                   	ret    
 8049182:	89 c6                	mov    %eax,%esi
 8049184:	89 1c 24             	mov    %ebx,(%esp)
 8049187:	e8 14 fb ff ff       	call   8048ca0 <_ZdlPv@plt>
 804918c:	89 f0                	mov    %esi,%eax
 804918e:	89 04 24             	mov    %eax,(%esp)
 8049191:	e8 2a fd ff ff       	call   8048ec0 <_Unwind_Resume@plt>
 8049196:	89 c3                	mov    %eax,%ebx
 8049198:	8d 44 24 1c          	lea    0x1c(%esp),%eax
 804919c:	89 04 24             	mov    %eax,(%esp)
 804919f:	e8 9c fb ff ff       	call   8048d40 <_ZNSsD1Ev@plt>
 80491a4:	eb 02                	jmp    80491a8 <main+0x1f4>
 80491a6:	89 c3                	mov    %eax,%ebx
 80491a8:	8d 44 24 3e          	lea    0x3e(%esp),%eax
 80491ac:	89 04 24             	mov    %eax,(%esp)
 80491af:	e8 ac fc ff ff       	call   8048e60 <_ZNSaIcED1Ev@plt>
 80491b4:	89 d8                	mov    %ebx,%eax
 80491b6:	89 04 24             	mov    %eax,(%esp)
 80491b9:	e8 02 fd ff ff       	call   8048ec0 <_Unwind_Resume@plt>
 80491be:	89 c3                	mov    %eax,%ebx
 80491c0:	8d 44 24 20          	lea    0x20(%esp),%eax
 80491c4:	89 04 24             	mov    %eax,(%esp)
 80491c7:	e8 74 fb ff ff       	call   8048d40 <_ZNSsD1Ev@plt>
 80491cc:	eb 02                	jmp    80491d0 <main+0x21c>
 80491ce:	89 c3                	mov    %eax,%ebx
 80491d0:	8d 44 24 3f          	lea    0x3f(%esp),%eax
 80491d4:	89 04 24             	mov    %eax,(%esp)
 80491d7:	e8 84 fc ff ff       	call   8048e60 <_ZNSaIcED1Ev@plt>
 80491dc:	89 d8                	mov    %ebx,%eax
 80491de:	89 04 24             	mov    %eax,(%esp)
 80491e1:	e8 da fc ff ff       	call   8048ec0 <_Unwind_Resume@plt>
 80491e6:	90                   	nop
 80491e7:	90                   	nop

080491e8 <_ZN5EventC1Ev>:
 80491e8:	55                   	push   %ebp
 80491e9:	89 e5                	mov    %esp,%ebp
 80491eb:	83 ec 18             	sub    $0x18,%esp
 80491ee:	8b 45 08             	mov    0x8(%ebp),%eax
 80491f1:	c7 00 60 d7 04 08    	movl   $0x804d760,(%eax)
 80491f7:	8b 45 08             	mov    0x8(%ebp),%eax
 80491fa:	83 c0 04             	add    $0x4,%eax
 80491fd:	89 04 24             	mov    %eax,(%esp)
 8049200:	e8 1b fa ff ff       	call   8048c20 <_ZNSsC1Ev@plt>
 8049205:	c9                   	leave  
 8049206:	c3                   	ret    
 8049207:	90                   	nop

08049208 <_ZN5EventD1Ev>:
 8049208:	55                   	push   %ebp
 8049209:	89 e5                	mov    %esp,%ebp
 804920b:	83 ec 18             	sub    $0x18,%esp
 804920e:	8b 45 08             	mov    0x8(%ebp),%eax
 8049211:	c7 00 60 d7 04 08    	movl   $0x804d760,(%eax)
 8049217:	8b 45 08             	mov    0x8(%ebp),%eax
 804921a:	83 c0 04             	add    $0x4,%eax
 804921d:	89 04 24             	mov    %eax,(%esp)
 8049220:	e8 1b fb ff ff       	call   8048d40 <_ZNSsD1Ev@plt>
 8049225:	b8 00 00 00 00       	mov    $0x0,%eax
 804922a:	83 e0 01             	and    $0x1,%eax
 804922d:	84 c0                	test   %al,%al
 804922f:	74 0b                	je     804923c <_ZN5EventD1Ev+0x34>
 8049231:	8b 45 08             	mov    0x8(%ebp),%eax
 8049234:	89 04 24             	mov    %eax,(%esp)
 8049237:	e8 64 fa ff ff       	call   8048ca0 <_ZdlPv@plt>
 804923c:	c9                   	leave  
 804923d:	c3                   	ret    

0804923e <_ZN5EventD0Ev>:
 804923e:	55                   	push   %ebp
 804923f:	89 e5                	mov    %esp,%ebp
 8049241:	83 ec 18             	sub    $0x18,%esp
 8049244:	8b 45 08             	mov    0x8(%ebp),%eax
 8049247:	89 04 24             	mov    %eax,(%esp)
 804924a:	e8 b9 ff ff ff       	call   8049208 <_ZN5EventD1Ev>
 804924f:	8b 45 08             	mov    0x8(%ebp),%eax
 8049252:	89 04 24             	mov    %eax,(%esp)
 8049255:	e8 46 fa ff ff       	call   8048ca0 <_ZdlPv@plt>
 804925a:	c9                   	leave  
 804925b:	c3                   	ret    

0804925c <_ZN5Event7setTypeESs>:
 804925c:	55                   	push   %ebp
 804925d:	89 e5                	mov    %esp,%ebp
 804925f:	83 ec 18             	sub    $0x18,%esp
 8049262:	8b 45 08             	mov    0x8(%ebp),%eax
 8049265:	8d 50 04             	lea    0x4(%eax),%edx
 8049268:	8b 45 0c             	mov    0xc(%ebp),%eax
 804926b:	89 44 24 04          	mov    %eax,0x4(%esp)
 804926f:	89 14 24             	mov    %edx,(%esp)
 8049272:	e8 79 fc ff ff       	call   8048ef0 <_ZNSsaSERKSs@plt>
 8049277:	c9                   	leave  
 8049278:	c3                   	ret    
 8049279:	90                   	nop

0804927a <_ZN5Event7getTypeEv>:
 804927a:	55                   	push   %ebp
 804927b:	89 e5                	mov    %esp,%ebp
 804927d:	83 ec 18             	sub    $0x18,%esp
 8049280:	8b 45 0c             	mov    0xc(%ebp),%eax
 8049283:	83 c0 04             	add    $0x4,%eax
 8049286:	89 44 24 04          	mov    %eax,0x4(%esp)
 804928a:	8b 45 08             	mov    0x8(%ebp),%eax
 804928d:	89 04 24             	mov    %eax,(%esp)
 8049290:	e8 6b fa ff ff       	call   8048d00 <_ZNSsC1ERKSs@plt>
 8049295:	8b 45 08             	mov    0x8(%ebp),%eax
 8049298:	c9                   	leave  
 8049299:	c2 04 00             	ret    $0x4

0804929c <_ZN9EventStepC1Ev>:
 804929c:	55                   	push   %ebp
 804929d:	89 e5                	mov    %esp,%ebp
 804929f:	53                   	push   %ebx
 80492a0:	83 ec 14             	sub    $0x14,%esp
 80492a3:	8b 45 08             	mov    0x8(%ebp),%eax
 80492a6:	89 04 24             	mov    %eax,(%esp)
 80492a9:	e8 3a ff ff ff       	call   80491e8 <_ZN5EventC1Ev>
 80492ae:	8b 45 08             	mov    0x8(%ebp),%eax
 80492b1:	c7 00 90 d7 04 08    	movl   $0x804d790,(%eax)
 80492b7:	8b 45 08             	mov    0x8(%ebp),%eax
 80492ba:	83 c0 08             	add    $0x8,%eax
 80492bd:	89 04 24             	mov    %eax,(%esp)
 80492c0:	e8 23 ff ff ff       	call   80491e8 <_ZN5EventC1Ev>
 80492c5:	8b 45 08             	mov    0x8(%ebp),%eax
 80492c8:	83 c0 04             	add    $0x4,%eax
 80492cb:	c7 44 24 04 7c d7 04 	movl   $0x804d77c,0x4(%esp)
 80492d2:	08 
 80492d3:	89 04 24             	mov    %eax,(%esp)
 80492d6:	e8 35 f9 ff ff       	call   8048c10 <_ZNSsaSEPKc@plt>
 80492db:	eb 29                	jmp    8049306 <_ZN9EventStepC1Ev+0x6a>
 80492dd:	89 c3                	mov    %eax,%ebx
 80492df:	8b 45 08             	mov    0x8(%ebp),%eax
 80492e2:	83 c0 08             	add    $0x8,%eax
 80492e5:	89 04 24             	mov    %eax,(%esp)
 80492e8:	e8 1b ff ff ff       	call   8049208 <_ZN5EventD1Ev>
 80492ed:	eb 02                	jmp    80492f1 <_ZN9EventStepC1Ev+0x55>
 80492ef:	89 c3                	mov    %eax,%ebx
 80492f1:	8b 45 08             	mov    0x8(%ebp),%eax
 80492f4:	89 04 24             	mov    %eax,(%esp)
 80492f7:	e8 0c ff ff ff       	call   8049208 <_ZN5EventD1Ev>
 80492fc:	89 d8                	mov    %ebx,%eax
 80492fe:	89 04 24             	mov    %eax,(%esp)
 8049301:	e8 ba fb ff ff       	call   8048ec0 <_Unwind_Resume@plt>
 8049306:	83 c4 14             	add    $0x14,%esp
 8049309:	5b                   	pop    %ebx
 804930a:	5d                   	pop    %ebp
 804930b:	c3                   	ret    

0804930c <_ZN9EventStepD1Ev>:
 804930c:	55                   	push   %ebp
 804930d:	89 e5                	mov    %esp,%ebp
 804930f:	53                   	push   %ebx
 8049310:	83 ec 14             	sub    $0x14,%esp
 8049313:	8b 45 08             	mov    0x8(%ebp),%eax
 8049316:	c7 00 90 d7 04 08    	movl   $0x804d790,(%eax)
 804931c:	8b 45 08             	mov    0x8(%ebp),%eax
 804931f:	83 c0 08             	add    $0x8,%eax
 8049322:	89 04 24             	mov    %eax,(%esp)
 8049325:	e8 de fe ff ff       	call   8049208 <_ZN5EventD1Ev>
 804932a:	8b 45 08             	mov    0x8(%ebp),%eax
 804932d:	89 04 24             	mov    %eax,(%esp)
 8049330:	e8 d3 fe ff ff       	call   8049208 <_ZN5EventD1Ev>
 8049335:	b8 00 00 00 00       	mov    $0x0,%eax
 804933a:	83 e0 01             	and    $0x1,%eax
 804933d:	84 c0                	test   %al,%al
 804933f:	74 24                	je     8049365 <_ZN9EventStepD1Ev+0x59>
 8049341:	8b 45 08             	mov    0x8(%ebp),%eax
 8049344:	89 04 24             	mov    %eax,(%esp)
 8049347:	e8 54 f9 ff ff       	call   8048ca0 <_ZdlPv@plt>
 804934c:	eb 17                	jmp    8049365 <_ZN9EventStepD1Ev+0x59>
 804934e:	89 c3                	mov    %eax,%ebx
 8049350:	8b 45 08             	mov    0x8(%ebp),%eax
 8049353:	89 04 24             	mov    %eax,(%esp)
 8049356:	e8 ad fe ff ff       	call   8049208 <_ZN5EventD1Ev>
 804935b:	89 d8                	mov    %ebx,%eax
 804935d:	89 04 24             	mov    %eax,(%esp)
 8049360:	e8 5b fb ff ff       	call   8048ec0 <_Unwind_Resume@plt>
 8049365:	83 c4 14             	add    $0x14,%esp
 8049368:	5b                   	pop    %ebx
 8049369:	5d                   	pop    %ebp
 804936a:	c3                   	ret    
 804936b:	90                   	nop

0804936c <_ZN9EventStepD0Ev>:
 804936c:	55                   	push   %ebp
 804936d:	89 e5                	mov    %esp,%ebp
 804936f:	83 ec 18             	sub    $0x18,%esp
 8049372:	8b 45 08             	mov    0x8(%ebp),%eax
 8049375:	89 04 24             	mov    %eax,(%esp)
 8049378:	e8 8f ff ff ff       	call   804930c <_ZN9EventStepD1Ev>
 804937d:	8b 45 08             	mov    0x8(%ebp),%eax
 8049380:	89 04 24             	mov    %eax,(%esp)
 8049383:	e8 18 f9 ff ff       	call   8048ca0 <_ZdlPv@plt>
 8049388:	c9                   	leave  
 8049389:	c3                   	ret    
 804938a:	90                   	nop
 804938b:	90                   	nop

0804938c <_ZN13EventKeyboardC1Ev>:
 804938c:	55                   	push   %ebp
 804938d:	89 e5                	mov    %esp,%ebp
 804938f:	53                   	push   %ebx
 8049390:	83 ec 14             	sub    $0x14,%esp
 8049393:	8b 45 08             	mov    0x8(%ebp),%eax
 8049396:	89 04 24             	mov    %eax,(%esp)
 8049399:	e8 4a fe ff ff       	call   80491e8 <_ZN5EventC1Ev>
 804939e:	8b 45 08             	mov    0x8(%ebp),%eax
 80493a1:	c7 00 f0 d7 04 08    	movl   $0x804d7f0,(%eax)
 80493a7:	8b 45 08             	mov    0x8(%ebp),%eax
 80493aa:	83 c0 04             	add    $0x4,%eax
 80493ad:	c7 44 24 04 b0 d7 04 	movl   $0x804d7b0,0x4(%esp)
 80493b4:	08 
 80493b5:	89 04 24             	mov    %eax,(%esp)
 80493b8:	e8 53 f8 ff ff       	call   8048c10 <_ZNSsaSEPKc@plt>
 80493bd:	eb 17                	jmp    80493d6 <_ZN13EventKeyboardC1Ev+0x4a>
 80493bf:	89 c3                	mov    %eax,%ebx
 80493c1:	8b 45 08             	mov    0x8(%ebp),%eax
 80493c4:	89 04 24             	mov    %eax,(%esp)
 80493c7:	e8 3c fe ff ff       	call   8049208 <_ZN5EventD1Ev>
 80493cc:	89 d8                	mov    %ebx,%eax
 80493ce:	89 04 24             	mov    %eax,(%esp)
 80493d1:	e8 ea fa ff ff       	call   8048ec0 <_Unwind_Resume@plt>
 80493d6:	83 c4 14             	add    $0x14,%esp
 80493d9:	5b                   	pop    %ebx
 80493da:	5d                   	pop    %ebp
 80493db:	c3                   	ret    

080493dc <_ZN13EventKeyboard6setKeyEc>:
 80493dc:	55                   	push   %ebp
 80493dd:	89 e5                	mov    %esp,%ebp
 80493df:	83 ec 38             	sub    $0x38,%esp
 80493e2:	8b 45 0c             	mov    0xc(%ebp),%eax
 80493e5:	88 45 e4             	mov    %al,-0x1c(%ebp)
 80493e8:	8b 45 08             	mov    0x8(%ebp),%eax
 80493eb:	0f b6 55 e4          	movzbl -0x1c(%ebp),%edx
 80493ef:	88 50 08             	mov    %dl,0x8(%eax)
 80493f2:	e8 c1 24 00 00       	call   804b8b8 <_ZN10LogManager11getInstanceEv>
 80493f7:	89 45 f4             	mov    %eax,-0xc(%ebp)
 80493fa:	8b 45 08             	mov    0x8(%ebp),%eax
 80493fd:	0f b6 40 08          	movzbl 0x8(%eax),%eax
 8049401:	0f be c0             	movsbl %al,%eax
 8049404:	89 44 24 08          	mov    %eax,0x8(%esp)
 8049408:	c7 44 24 04 bc d7 04 	movl   $0x804d7bc,0x4(%esp)
 804940f:	08 
 8049410:	8b 45 f4             	mov    -0xc(%ebp),%eax
 8049413:	89 04 24             	mov    %eax,(%esp)
 8049416:	e8 b7 25 00 00       	call   804b9d2 <_ZN10LogManager8writeLogEPKcz>
 804941b:	c9                   	leave  
 804941c:	c3                   	ret    
 804941d:	90                   	nop

0804941e <_ZN13EventKeyboard6getKeyEv>:
 804941e:	55                   	push   %ebp
 804941f:	89 e5                	mov    %esp,%ebp
 8049421:	8b 45 08             	mov    0x8(%ebp),%eax
 8049424:	0f b6 40 08          	movzbl 0x8(%eax),%eax
 8049428:	5d                   	pop    %ebp
 8049429:	c3                   	ret    

0804942a <_ZN13EventKeyboardD1Ev>:
 804942a:	55                   	push   %ebp
 804942b:	89 e5                	mov    %esp,%ebp
 804942d:	83 ec 18             	sub    $0x18,%esp
 8049430:	8b 45 08             	mov    0x8(%ebp),%eax
 8049433:	c7 00 f0 d7 04 08    	movl   $0x804d7f0,(%eax)
 8049439:	8b 45 08             	mov    0x8(%ebp),%eax
 804943c:	89 04 24             	mov    %eax,(%esp)
 804943f:	e8 c4 fd ff ff       	call   8049208 <_ZN5EventD1Ev>
 8049444:	b8 00 00 00 00       	mov    $0x0,%eax
 8049449:	83 e0 01             	and    $0x1,%eax
 804944c:	84 c0                	test   %al,%al
 804944e:	74 0b                	je     804945b <_ZN13EventKeyboardD1Ev+0x31>
 8049450:	8b 45 08             	mov    0x8(%ebp),%eax
 8049453:	89 04 24             	mov    %eax,(%esp)
 8049456:	e8 45 f8 ff ff       	call   8048ca0 <_ZdlPv@plt>
 804945b:	c9                   	leave  
 804945c:	c3                   	ret    
 804945d:	90                   	nop

0804945e <_ZN13EventKeyboardD0Ev>:
 804945e:	55                   	push   %ebp
 804945f:	89 e5                	mov    %esp,%ebp
 8049461:	83 ec 18             	sub    $0x18,%esp
 8049464:	8b 45 08             	mov    0x8(%ebp),%eax
 8049467:	89 04 24             	mov    %eax,(%esp)
 804946a:	e8 bb ff ff ff       	call   804942a <_ZN13EventKeyboardD1Ev>
 804946f:	8b 45 08             	mov    0x8(%ebp),%eax
 8049472:	89 04 24             	mov    %eax,(%esp)
 8049475:	e8 26 f8 ff ff       	call   8048ca0 <_ZdlPv@plt>
 804947a:	c9                   	leave  
 804947b:	c3                   	ret    

0804947c <_ZN10EventMouseC1Ev>:
 804947c:	55                   	push   %ebp
 804947d:	89 e5                	mov    %esp,%ebp
 804947f:	53                   	push   %ebx
 8049480:	83 ec 14             	sub    $0x14,%esp
 8049483:	8b 45 08             	mov    0x8(%ebp),%eax
 8049486:	89 04 24             	mov    %eax,(%esp)
 8049489:	e8 5a fd ff ff       	call   80491e8 <_ZN5EventC1Ev>
 804948e:	8b 45 08             	mov    0x8(%ebp),%eax
 8049491:	c7 00 28 d8 04 08    	movl   $0x804d828,(%eax)
 8049497:	8b 45 08             	mov    0x8(%ebp),%eax
 804949a:	83 c0 04             	add    $0x4,%eax
 804949d:	c7 44 24 04 14 d8 04 	movl   $0x804d814,0x4(%esp)
 80494a4:	08 
 80494a5:	89 04 24             	mov    %eax,(%esp)
 80494a8:	e8 63 f7 ff ff       	call   8048c10 <_ZNSsaSEPKc@plt>
 80494ad:	eb 17                	jmp    80494c6 <_ZN10EventMouseC1Ev+0x4a>
 80494af:	89 c3                	mov    %eax,%ebx
 80494b1:	8b 45 08             	mov    0x8(%ebp),%eax
 80494b4:	89 04 24             	mov    %eax,(%esp)
 80494b7:	e8 4c fd ff ff       	call   8049208 <_ZN5EventD1Ev>
 80494bc:	89 d8                	mov    %ebx,%eax
 80494be:	89 04 24             	mov    %eax,(%esp)
 80494c1:	e8 fa f9 ff ff       	call   8048ec0 <_Unwind_Resume@plt>
 80494c6:	83 c4 14             	add    $0x14,%esp
 80494c9:	5b                   	pop    %ebx
 80494ca:	5d                   	pop    %ebp
 80494cb:	c3                   	ret    

080494cc <_ZN10EventMouseD1Ev>:
 80494cc:	55                   	push   %ebp
 80494cd:	89 e5                	mov    %esp,%ebp
 80494cf:	83 ec 18             	sub    $0x18,%esp
 80494d2:	8b 45 08             	mov    0x8(%ebp),%eax
 80494d5:	c7 00 28 d8 04 08    	movl   $0x804d828,(%eax)
 80494db:	8b 45 08             	mov    0x8(%ebp),%eax
 80494de:	89 04 24             	mov    %eax,(%esp)
 80494e1:	e8 22 fd ff ff       	call   8049208 <_ZN5EventD1Ev>
 80494e6:	b8 00 00 00 00       	mov    $0x0,%eax
 80494eb:	83 e0 01             	and    $0x1,%eax
 80494ee:	84 c0                	test   %al,%al
 80494f0:	74 0b                	je     80494fd <_ZN10EventMouseD1Ev+0x31>
 80494f2:	8b 45 08             	mov    0x8(%ebp),%eax
 80494f5:	89 04 24             	mov    %eax,(%esp)
 80494f8:	e8 a3 f7 ff ff       	call   8048ca0 <_ZdlPv@plt>
 80494fd:	c9                   	leave  
 80494fe:	c3                   	ret    
 80494ff:	90                   	nop

08049500 <_ZN10EventMouseD0Ev>:
 8049500:	55                   	push   %ebp
 8049501:	89 e5                	mov    %esp,%ebp
 8049503:	83 ec 18             	sub    $0x18,%esp
 8049506:	8b 45 08             	mov    0x8(%ebp),%eax
 8049509:	89 04 24             	mov    %eax,(%esp)
 804950c:	e8 bb ff ff ff       	call   80494cc <_ZN10EventMouseD1Ev>
 8049511:	8b 45 08             	mov    0x8(%ebp),%eax
 8049514:	89 04 24             	mov    %eax,(%esp)
 8049517:	e8 84 f7 ff ff       	call   8048ca0 <_ZdlPv@plt>
 804951c:	c9                   	leave  
 804951d:	c3                   	ret    

0804951e <_ZN10EventMouse14setMouseActionE15MouseActionList>:
 804951e:	55                   	push   %ebp
 804951f:	89 e5                	mov    %esp,%ebp
 8049521:	5d                   	pop    %ebp
 8049522:	c3                   	ret    
 8049523:	90                   	nop

08049524 <_ZN10EventMouse14getMouseActionEv>:
 8049524:	55                   	push   %ebp
 8049525:	89 e5                	mov    %esp,%ebp
 8049527:	5d                   	pop    %ebp
 8049528:	c3                   	ret    
 8049529:	90                   	nop

0804952a <_ZN10EventMouse9setMouseXEi>:
 804952a:	55                   	push   %ebp
 804952b:	89 e5                	mov    %esp,%ebp
 804952d:	5d                   	pop    %ebp
 804952e:	c3                   	ret    
 804952f:	90                   	nop

08049530 <_ZN10EventMouse9setMouseYEi>:
 8049530:	55                   	push   %ebp
 8049531:	89 e5                	mov    %esp,%ebp
 8049533:	5d                   	pop    %ebp
 8049534:	c3                   	ret    
 8049535:	90                   	nop

08049536 <_ZN10EventMouse9getMouseXEv>:
 8049536:	55                   	push   %ebp
 8049537:	89 e5                	mov    %esp,%ebp
 8049539:	5d                   	pop    %ebp
 804953a:	c3                   	ret    
 804953b:	90                   	nop

0804953c <_ZN10EventMouse9getMouseYEv>:
 804953c:	55                   	push   %ebp
 804953d:	89 e5                	mov    %esp,%ebp
 804953f:	5d                   	pop    %ebp
 8049540:	c3                   	ret    
 8049541:	90                   	nop
 8049542:	90                   	nop
 8049543:	90                   	nop

08049544 <_ZN14EventCollisionC1Ev>:
 8049544:	55                   	push   %ebp
 8049545:	89 e5                	mov    %esp,%ebp
 8049547:	53                   	push   %ebx
 8049548:	83 ec 24             	sub    $0x24,%esp
 804954b:	8b 45 08             	mov    0x8(%ebp),%eax
 804954e:	89 04 24             	mov    %eax,(%esp)
 8049551:	e8 92 fc ff ff       	call   80491e8 <_ZN5EventC1Ev>
 8049556:	8b 45 08             	mov    0x8(%ebp),%eax
 8049559:	c7 00 60 d8 04 08    	movl   $0x804d860,(%eax)
 804955f:	8b 45 08             	mov    0x8(%ebp),%eax
 8049562:	83 c0 08             	add    $0x8,%eax
 8049565:	89 04 24             	mov    %eax,(%esp)
 8049568:	e8 e7 24 00 00       	call   804ba54 <_ZN8PositionC1Ev>
 804956d:	8b 45 08             	mov    0x8(%ebp),%eax
 8049570:	c7 40 10 00 00 00 00 	movl   $0x0,0x10(%eax)
 8049577:	8b 45 08             	mov    0x8(%ebp),%eax
 804957a:	c7 40 14 00 00 00 00 	movl   $0x0,0x14(%eax)
 8049581:	c7 44 24 08 00 00 00 	movl   $0x0,0x8(%esp)
 8049588:	00 
 8049589:	c7 44 24 04 00 00 00 	movl   $0x0,0x4(%esp)
 8049590:	00 
 8049591:	8d 45 f0             	lea    -0x10(%ebp),%eax
 8049594:	89 04 24             	mov    %eax,(%esp)
 8049597:	e8 d0 24 00 00       	call   804ba6c <_ZN8PositionC1Eii>
 804959c:	8b 45 08             	mov    0x8(%ebp),%eax
 804959f:	8b 55 f0             	mov    -0x10(%ebp),%edx
 80495a2:	89 50 08             	mov    %edx,0x8(%eax)
 80495a5:	8b 55 f4             	mov    -0xc(%ebp),%edx
 80495a8:	89 50 0c             	mov    %edx,0xc(%eax)
 80495ab:	8d 45 f0             	lea    -0x10(%ebp),%eax
 80495ae:	89 04 24             	mov    %eax,(%esp)
 80495b1:	e8 fe 24 00 00       	call   804bab4 <_ZN8PositionD1Ev>
 80495b6:	8b 45 08             	mov    0x8(%ebp),%eax
 80495b9:	83 c0 04             	add    $0x4,%eax
 80495bc:	c7 44 24 04 49 d8 04 	movl   $0x804d849,0x4(%esp)
 80495c3:	08 
 80495c4:	89 04 24             	mov    %eax,(%esp)
 80495c7:	e8 44 f6 ff ff       	call   8048c10 <_ZNSsaSEPKc@plt>
 80495cc:	eb 29                	jmp    80495f7 <_ZN14EventCollisionC1Ev+0xb3>
 80495ce:	89 c3                	mov    %eax,%ebx
 80495d0:	8b 45 08             	mov    0x8(%ebp),%eax
 80495d3:	83 c0 08             	add    $0x8,%eax
 80495d6:	89 04 24             	mov    %eax,(%esp)
 80495d9:	e8 d6 24 00 00       	call   804bab4 <_ZN8PositionD1Ev>
 80495de:	eb 02                	jmp    80495e2 <_ZN14EventCollisionC1Ev+0x9e>
 80495e0:	89 c3                	mov    %eax,%ebx
 80495e2:	8b 45 08             	mov    0x8(%ebp),%eax
 80495e5:	89 04 24             	mov    %eax,(%esp)
 80495e8:	e8 1b fc ff ff       	call   8049208 <_ZN5EventD1Ev>
 80495ed:	89 d8                	mov    %ebx,%eax
 80495ef:	89 04 24             	mov    %eax,(%esp)
 80495f2:	e8 c9 f8 ff ff       	call   8048ec0 <_Unwind_Resume@plt>
 80495f7:	83 c4 24             	add    $0x24,%esp
 80495fa:	5b                   	pop    %ebx
 80495fb:	5d                   	pop    %ebp
 80495fc:	c3                   	ret    
 80495fd:	90                   	nop

080495fe <_ZN14EventCollisionC1EP6ObjectS1_8Position>:
 80495fe:	55                   	push   %ebp
 80495ff:	89 e5                	mov    %esp,%ebp
 8049601:	53                   	push   %ebx
 8049602:	83 ec 14             	sub    $0x14,%esp
 8049605:	8b 45 08             	mov    0x8(%ebp),%eax
 8049608:	89 04 24             	mov    %eax,(%esp)
 804960b:	e8 d8 fb ff ff       	call   80491e8 <_ZN5EventC1Ev>
 8049610:	8b 45 08             	mov    0x8(%ebp),%eax
 8049613:	c7 00 60 d8 04 08    	movl   $0x804d860,(%eax)
 8049619:	8b 45 08             	mov    0x8(%ebp),%eax
 804961c:	83 c0 08             	add    $0x8,%eax
 804961f:	89 04 24             	mov    %eax,(%esp)
 8049622:	e8 2d 24 00 00       	call   804ba54 <_ZN8PositionC1Ev>
 8049627:	8b 45 08             	mov    0x8(%ebp),%eax
 804962a:	8b 55 0c             	mov    0xc(%ebp),%edx
 804962d:	89 50 10             	mov    %edx,0x10(%eax)
 8049630:	8b 45 08             	mov    0x8(%ebp),%eax
 8049633:	8b 55 10             	mov    0x10(%ebp),%edx
 8049636:	89 50 14             	mov    %edx,0x14(%eax)
 8049639:	8b 45 08             	mov    0x8(%ebp),%eax
 804963c:	8b 55 14             	mov    0x14(%ebp),%edx
 804963f:	8b 0a                	mov    (%edx),%ecx
 8049641:	89 48 08             	mov    %ecx,0x8(%eax)
 8049644:	8b 52 04             	mov    0x4(%edx),%edx
 8049647:	89 50 0c             	mov    %edx,0xc(%eax)
 804964a:	83 c4 14             	add    $0x14,%esp
 804964d:	5b                   	pop    %ebx
 804964e:	5d                   	pop    %ebp
 804964f:	c3                   	ret    
 8049650:	89 c3                	mov    %eax,%ebx
 8049652:	8b 45 08             	mov    0x8(%ebp),%eax
 8049655:	89 04 24             	mov    %eax,(%esp)
 8049658:	e8 ab fb ff ff       	call   8049208 <_ZN5EventD1Ev>
 804965d:	89 d8                	mov    %ebx,%eax
 804965f:	89 04 24             	mov    %eax,(%esp)
 8049662:	e8 59 f8 ff ff       	call   8048ec0 <_Unwind_Resume@plt>
 8049667:	90                   	nop

08049668 <_ZN14EventCollision9getObjectEv>:
 8049668:	55                   	push   %ebp
 8049669:	89 e5                	mov    %esp,%ebp
 804966b:	8b 45 08             	mov    0x8(%ebp),%eax
 804966e:	8b 40 10             	mov    0x10(%eax),%eax
 8049671:	5d                   	pop    %ebp
 8049672:	c3                   	ret    
 8049673:	90                   	nop

08049674 <_ZN14EventCollision10setObject1EP6Object>:
 8049674:	55                   	push   %ebp
 8049675:	89 e5                	mov    %esp,%ebp
 8049677:	8b 45 08             	mov    0x8(%ebp),%eax
 804967a:	8b 55 0c             	mov    0xc(%ebp),%edx
 804967d:	89 50 10             	mov    %edx,0x10(%eax)
 8049680:	5d                   	pop    %ebp
 8049681:	c3                   	ret    

08049682 <_ZN14EventCollision10getObject2Ev>:
 8049682:	55                   	push   %ebp
 8049683:	89 e5                	mov    %esp,%ebp
 8049685:	8b 45 08             	mov    0x8(%ebp),%eax
 8049688:	8b 40 14             	mov    0x14(%eax),%eax
 804968b:	5d                   	pop    %ebp
 804968c:	c3                   	ret    
 804968d:	90                   	nop

0804968e <_ZN14EventCollision10setObject2EP6Object>:
 804968e:	55                   	push   %ebp
 804968f:	89 e5                	mov    %esp,%ebp
 8049691:	8b 45 08             	mov    0x8(%ebp),%eax
 8049694:	8b 55 0c             	mov    0xc(%ebp),%edx
 8049697:	89 50 14             	mov    %edx,0x14(%eax)
 804969a:	5d                   	pop    %ebp
 804969b:	c3                   	ret    

0804969c <_ZN14EventCollision11getPositionEv>:
 804969c:	55                   	push   %ebp
 804969d:	89 e5                	mov    %esp,%ebp
 804969f:	8b 45 08             	mov    0x8(%ebp),%eax
 80496a2:	8b 55 0c             	mov    0xc(%ebp),%edx
 80496a5:	8b 4a 08             	mov    0x8(%edx),%ecx
 80496a8:	89 08                	mov    %ecx,(%eax)
 80496aa:	8b 52 0c             	mov    0xc(%edx),%edx
 80496ad:	89 50 04             	mov    %edx,0x4(%eax)
 80496b0:	8b 45 08             	mov    0x8(%ebp),%eax
 80496b3:	5d                   	pop    %ebp
 80496b4:	c2 04 00             	ret    $0x4
 80496b7:	90                   	nop

080496b8 <_ZN14EventCollision11setPositionE8Position>:
 80496b8:	55                   	push   %ebp
 80496b9:	89 e5                	mov    %esp,%ebp
 80496bb:	8b 45 08             	mov    0x8(%ebp),%eax
 80496be:	8b 55 0c             	mov    0xc(%ebp),%edx
 80496c1:	8b 0a                	mov    (%edx),%ecx
 80496c3:	89 48 08             	mov    %ecx,0x8(%eax)
 80496c6:	8b 52 04             	mov    0x4(%edx),%edx
 80496c9:	89 50 0c             	mov    %edx,0xc(%eax)
 80496cc:	5d                   	pop    %ebp
 80496cd:	c3                   	ret    

080496ce <_ZN14EventCollisionD1Ev>:
 80496ce:	55                   	push   %ebp
 80496cf:	89 e5                	mov    %esp,%ebp
 80496d1:	53                   	push   %ebx
 80496d2:	83 ec 14             	sub    $0x14,%esp
 80496d5:	8b 45 08             	mov    0x8(%ebp),%eax
 80496d8:	c7 00 60 d8 04 08    	movl   $0x804d860,(%eax)
 80496de:	8b 45 08             	mov    0x8(%ebp),%eax
 80496e1:	83 c0 08             	add    $0x8,%eax
 80496e4:	89 04 24             	mov    %eax,(%esp)
 80496e7:	e8 c8 23 00 00       	call   804bab4 <_ZN8PositionD1Ev>
 80496ec:	8b 45 08             	mov    0x8(%ebp),%eax
 80496ef:	89 04 24             	mov    %eax,(%esp)
 80496f2:	e8 11 fb ff ff       	call   8049208 <_ZN5EventD1Ev>
 80496f7:	b8 00 00 00 00       	mov    $0x0,%eax
 80496fc:	83 e0 01             	and    $0x1,%eax
 80496ff:	84 c0                	test   %al,%al
 8049701:	74 24                	je     8049727 <_ZN14EventCollisionD1Ev+0x59>
 8049703:	8b 45 08             	mov    0x8(%ebp),%eax
 8049706:	89 04 24             	mov    %eax,(%esp)
 8049709:	e8 92 f5 ff ff       	call   8048ca0 <_ZdlPv@plt>
 804970e:	eb 17                	jmp    8049727 <_ZN14EventCollisionD1Ev+0x59>
 8049710:	89 c3                	mov    %eax,%ebx
 8049712:	8b 45 08             	mov    0x8(%ebp),%eax
 8049715:	89 04 24             	mov    %eax,(%esp)
 8049718:	e8 eb fa ff ff       	call   8049208 <_ZN5EventD1Ev>
 804971d:	89 d8                	mov    %ebx,%eax
 804971f:	89 04 24             	mov    %eax,(%esp)
 8049722:	e8 99 f7 ff ff       	call   8048ec0 <_Unwind_Resume@plt>
 8049727:	83 c4 14             	add    $0x14,%esp
 804972a:	5b                   	pop    %ebx
 804972b:	5d                   	pop    %ebp
 804972c:	c3                   	ret    
 804972d:	90                   	nop

0804972e <_ZN14EventCollisionD0Ev>:
 804972e:	55                   	push   %ebp
 804972f:	89 e5                	mov    %esp,%ebp
 8049731:	83 ec 18             	sub    $0x18,%esp
 8049734:	8b 45 08             	mov    0x8(%ebp),%eax
 8049737:	89 04 24             	mov    %eax,(%esp)
 804973a:	e8 8f ff ff ff       	call   80496ce <_ZN14EventCollisionD1Ev>
 804973f:	8b 45 08             	mov    0x8(%ebp),%eax
 8049742:	89 04 24             	mov    %eax,(%esp)
 8049745:	e8 56 f5 ff ff       	call   8048ca0 <_ZdlPv@plt>
 804974a:	c9                   	leave  
 804974b:	c3                   	ret    

0804974c <_ZN8EventOutC1Ev>:
 804974c:	55                   	push   %ebp
 804974d:	89 e5                	mov    %esp,%ebp
 804974f:	53                   	push   %ebx
 8049750:	83 ec 14             	sub    $0x14,%esp
 8049753:	8b 45 08             	mov    0x8(%ebp),%eax
 8049756:	89 04 24             	mov    %eax,(%esp)
 8049759:	e8 8a fa ff ff       	call   80491e8 <_ZN5EventC1Ev>
 804975e:	8b 45 08             	mov    0x8(%ebp),%eax
 8049761:	c7 00 98 d8 04 08    	movl   $0x804d898,(%eax)
 8049767:	8b 45 08             	mov    0x8(%ebp),%eax
 804976a:	83 c0 08             	add    $0x8,%eax
 804976d:	89 04 24             	mov    %eax,(%esp)
 8049770:	e8 73 fa ff ff       	call   80491e8 <_ZN5EventC1Ev>
 8049775:	8b 45 08             	mov    0x8(%ebp),%eax
 8049778:	83 c0 04             	add    $0x4,%eax
 804977b:	c7 44 24 04 88 d8 04 	movl   $0x804d888,0x4(%esp)
 8049782:	08 
 8049783:	89 04 24             	mov    %eax,(%esp)
 8049786:	e8 85 f4 ff ff       	call   8048c10 <_ZNSsaSEPKc@plt>
 804978b:	eb 29                	jmp    80497b6 <_ZN8EventOutC1Ev+0x6a>
 804978d:	89 c3                	mov    %eax,%ebx
 804978f:	8b 45 08             	mov    0x8(%ebp),%eax
 8049792:	83 c0 08             	add    $0x8,%eax
 8049795:	89 04 24             	mov    %eax,(%esp)
 8049798:	e8 6b fa ff ff       	call   8049208 <_ZN5EventD1Ev>
 804979d:	eb 02                	jmp    80497a1 <_ZN8EventOutC1Ev+0x55>
 804979f:	89 c3                	mov    %eax,%ebx
 80497a1:	8b 45 08             	mov    0x8(%ebp),%eax
 80497a4:	89 04 24             	mov    %eax,(%esp)
 80497a7:	e8 5c fa ff ff       	call   8049208 <_ZN5EventD1Ev>
 80497ac:	89 d8                	mov    %ebx,%eax
 80497ae:	89 04 24             	mov    %eax,(%esp)
 80497b1:	e8 0a f7 ff ff       	call   8048ec0 <_Unwind_Resume@plt>
 80497b6:	83 c4 14             	add    $0x14,%esp
 80497b9:	5b                   	pop    %ebx
 80497ba:	5d                   	pop    %ebp
 80497bb:	c3                   	ret    

080497bc <_ZN8EventOutD1Ev>:
 80497bc:	55                   	push   %ebp
 80497bd:	89 e5                	mov    %esp,%ebp
 80497bf:	53                   	push   %ebx
 80497c0:	83 ec 14             	sub    $0x14,%esp
 80497c3:	8b 45 08             	mov    0x8(%ebp),%eax
 80497c6:	c7 00 98 d8 04 08    	movl   $0x804d898,(%eax)
 80497cc:	8b 45 08             	mov    0x8(%ebp),%eax
 80497cf:	83 c0 08             	add    $0x8,%eax
 80497d2:	89 04 24             	mov    %eax,(%esp)
 80497d5:	e8 2e fa ff ff       	call   8049208 <_ZN5EventD1Ev>
 80497da:	8b 45 08             	mov    0x8(%ebp),%eax
 80497dd:	89 04 24             	mov    %eax,(%esp)
 80497e0:	e8 23 fa ff ff       	call   8049208 <_ZN5EventD1Ev>
 80497e5:	b8 00 00 00 00       	mov    $0x0,%eax
 80497ea:	83 e0 01             	and    $0x1,%eax
 80497ed:	84 c0                	test   %al,%al
 80497ef:	74 24                	je     8049815 <_ZN8EventOutD1Ev+0x59>
 80497f1:	8b 45 08             	mov    0x8(%ebp),%eax
 80497f4:	89 04 24             	mov    %eax,(%esp)
 80497f7:	e8 a4 f4 ff ff       	call   8048ca0 <_ZdlPv@plt>
 80497fc:	eb 17                	jmp    8049815 <_ZN8EventOutD1Ev+0x59>
 80497fe:	89 c3                	mov    %eax,%ebx
 8049800:	8b 45 08             	mov    0x8(%ebp),%eax
 8049803:	89 04 24             	mov    %eax,(%esp)
 8049806:	e8 fd f9 ff ff       	call   8049208 <_ZN5EventD1Ev>
 804980b:	89 d8                	mov    %ebx,%eax
 804980d:	89 04 24             	mov    %eax,(%esp)
 8049810:	e8 ab f6 ff ff       	call   8048ec0 <_Unwind_Resume@plt>
 8049815:	83 c4 14             	add    $0x14,%esp
 8049818:	5b                   	pop    %ebx
 8049819:	5d                   	pop    %ebp
 804981a:	c3                   	ret    
 804981b:	90                   	nop

0804981c <_ZN8EventOutD0Ev>:
 804981c:	55                   	push   %ebp
 804981d:	89 e5                	mov    %esp,%ebp
 804981f:	83 ec 18             	sub    $0x18,%esp
 8049822:	8b 45 08             	mov    0x8(%ebp),%eax
 8049825:	89 04 24             	mov    %eax,(%esp)
 8049828:	e8 8f ff ff ff       	call   80497bc <_ZN8EventOutD1Ev>
 804982d:	8b 45 08             	mov    0x8(%ebp),%eax
 8049830:	89 04 24             	mov    %eax,(%esp)
 8049833:	e8 68 f4 ff ff       	call   8048ca0 <_ZdlPv@plt>
 8049838:	c9                   	leave  
 8049839:	c3                   	ret    
 804983a:	90                   	nop
 804983b:	90                   	nop

0804983c <_ZN5ClockC1Ev>:
 804983c:	55                   	push   %ebp
 804983d:	89 e5                	mov    %esp,%ebp
 804983f:	5d                   	pop    %ebp
 8049840:	c3                   	ret    
 8049841:	90                   	nop

08049842 <_ZN5ClockD1Ev>:
 8049842:	55                   	push   %ebp
 8049843:	89 e5                	mov    %esp,%ebp
 8049845:	5d                   	pop    %ebp
 8049846:	c3                   	ret    
 8049847:	90                   	nop

08049848 <_ZN5Clock11initialTimeEv>:
 8049848:	55                   	push   %ebp
 8049849:	89 e5                	mov    %esp,%ebp
 804984b:	83 ec 18             	sub    $0x18,%esp
 804984e:	8b 45 08             	mov    0x8(%ebp),%eax
 8049851:	c7 44 24 04 00 00 00 	movl   $0x0,0x4(%esp)
 8049858:	00 
 8049859:	89 04 24             	mov    %eax,(%esp)
 804985c:	e8 cf f4 ff ff       	call   8048d30 <gettimeofday@plt>
 8049861:	8b 45 08             	mov    0x8(%ebp),%eax
 8049864:	8b 40 04             	mov    0x4(%eax),%eax
 8049867:	c9                   	leave  
 8049868:	c3                   	ret    
 8049869:	90                   	nop

0804986a <_ZN5Clock9calcDeltaEv>:
 804986a:	55                   	push   %ebp
 804986b:	89 e5                	mov    %esp,%ebp
 804986d:	83 ec 18             	sub    $0x18,%esp
 8049870:	8b 45 08             	mov    0x8(%ebp),%eax
 8049873:	83 c0 08             	add    $0x8,%eax
 8049876:	c7 44 24 04 00 00 00 	movl   $0x0,0x4(%esp)
 804987d:	00 
 804987e:	89 04 24             	mov    %eax,(%esp)
 8049881:	e8 aa f4 ff ff       	call   8048d30 <gettimeofday@plt>
 8049886:	8b 45 08             	mov    0x8(%ebp),%eax
 8049889:	8b 50 0c             	mov    0xc(%eax),%edx
 804988c:	8b 45 08             	mov    0x8(%ebp),%eax
 804988f:	8b 40 04             	mov    0x4(%eax),%eax
 8049892:	89 d1                	mov    %edx,%ecx
 8049894:	29 c1                	sub    %eax,%ecx
 8049896:	89 c8                	mov    %ecx,%eax
 8049898:	c9                   	leave  
 8049899:	c3                   	ret    
 804989a:	90                   	nop
 804989b:	90                   	nop

0804989c <_ZN7ManagerC1Ev>:
 804989c:	55                   	push   %ebp
 804989d:	89 e5                	mov    %esp,%ebp
 804989f:	57                   	push   %edi
 80498a0:	56                   	push   %esi
 80498a1:	53                   	push   %ebx
 80498a2:	83 ec 2c             	sub    $0x2c,%esp
 80498a5:	8b 45 08             	mov    0x8(%ebp),%eax
 80498a8:	c7 00 c8 d8 04 08    	movl   $0x804d8c8,(%eax)
 80498ae:	8b 45 08             	mov    0x8(%ebp),%eax
 80498b1:	8d 70 08             	lea    0x8(%eax),%esi
 80498b4:	89 f7                	mov    %esi,%edi
 80498b6:	bb 63 00 00 00       	mov    $0x63,%ebx
 80498bb:	eb 0e                	jmp    80498cb <_ZN7ManagerC1Ev+0x2f>
 80498bd:	89 3c 24             	mov    %edi,(%esp)
 80498c0:	e8 5b f3 ff ff       	call   8048c20 <_ZNSsC1Ev@plt>
 80498c5:	83 c7 04             	add    $0x4,%edi
 80498c8:	83 eb 01             	sub    $0x1,%ebx
 80498cb:	83 fb ff             	cmp    $0xffffffff,%ebx
 80498ce:	0f 95 c0             	setne  %al
 80498d1:	84 c0                	test   %al,%al
 80498d3:	75 e8                	jne    80498bd <_ZN7ManagerC1Ev+0x21>
 80498d5:	8b 45 08             	mov    0x8(%ebp),%eax
 80498d8:	8d b0 98 01 00 00    	lea    0x198(%eax),%esi
 80498de:	89 f7                	mov    %esi,%edi
 80498e0:	bb 63 00 00 00       	mov    $0x63,%ebx
 80498e5:	eb 11                	jmp    80498f8 <_ZN7ManagerC1Ev+0x5c>
 80498e7:	89 3c 24             	mov    %edi,(%esp)
 80498ea:	e8 51 2e 00 00       	call   804c740 <_ZN10ObjectListC1Ev>
 80498ef:	81 c7 10 02 00 00    	add    $0x210,%edi
 80498f5:	83 eb 01             	sub    $0x1,%ebx
 80498f8:	83 fb ff             	cmp    $0xffffffff,%ebx
 80498fb:	0f 95 c0             	setne  %al
 80498fe:	84 c0                	test   %al,%al
 8049900:	75 e5                	jne    80498e7 <_ZN7ManagerC1Ev+0x4b>
 8049902:	c7 45 e4 00 00 00 00 	movl   $0x0,-0x1c(%ebp)
 8049909:	eb 20                	jmp    804992b <_ZN7ManagerC1Ev+0x8f>
 804990b:	8b 45 e4             	mov    -0x1c(%ebp),%eax
 804990e:	c1 e0 02             	shl    $0x2,%eax
 8049911:	03 45 08             	add    0x8(%ebp),%eax
 8049914:	83 c0 08             	add    $0x8,%eax
 8049917:	c7 44 24 04 b8 d8 04 	movl   $0x804d8b8,0x4(%esp)
 804991e:	08 
 804991f:	89 04 24             	mov    %eax,(%esp)
 8049922:	e8 e9 f2 ff ff       	call   8048c10 <_ZNSsaSEPKc@plt>
 8049927:	83 45 e4 01          	addl   $0x1,-0x1c(%ebp)
 804992b:	83 7d e4 63          	cmpl   $0x63,-0x1c(%ebp)
 804992f:	0f 9e c0             	setle  %al
 8049932:	84 c0                	test   %al,%al
 8049934:	75 d5                	jne    804990b <_ZN7ManagerC1Ev+0x6f>
 8049936:	8b 45 08             	mov    0x8(%ebp),%eax
 8049939:	c7 40 04 00 00 00 00 	movl   $0x0,0x4(%eax)
 8049940:	83 c4 2c             	add    $0x2c,%esp
 8049943:	5b                   	pop    %ebx
 8049944:	5e                   	pop    %esi
 8049945:	5f                   	pop    %edi
 8049946:	5d                   	pop    %ebp
 8049947:	c3                   	ret    
 8049948:	89 c7                	mov    %eax,%edi
 804994a:	85 f6                	test   %esi,%esi
 804994c:	74 1e                	je     804996c <_ZN7ManagerC1Ev+0xd0>
 804994e:	b8 63 00 00 00       	mov    $0x63,%eax
 8049953:	29 d8                	sub    %ebx,%eax
 8049955:	c1 e0 02             	shl    $0x2,%eax
 8049958:	8d 1c 06             	lea    (%esi,%eax,1),%ebx
 804995b:	39 f3                	cmp    %esi,%ebx
 804995d:	74 0d                	je     804996c <_ZN7ManagerC1Ev+0xd0>
 804995f:	83 eb 04             	sub    $0x4,%ebx
 8049962:	89 1c 24             	mov    %ebx,(%esp)
 8049965:	e8 d6 f3 ff ff       	call   8048d40 <_ZNSsD1Ev@plt>
 804996a:	eb ef                	jmp    804995b <_ZN7ManagerC1Ev+0xbf>
 804996c:	89 f8                	mov    %edi,%eax
 804996e:	89 04 24             	mov    %eax,(%esp)
 8049971:	e8 4a f5 ff ff       	call   8048ec0 <_Unwind_Resume@plt>
 8049976:	89 c7                	mov    %eax,%edi
 8049978:	85 f6                	test   %esi,%esi
 804997a:	74 23                	je     804999f <_ZN7ManagerC1Ev+0x103>
 804997c:	69 c3 f0 fd ff ff    	imul   $0xfffffdf0,%ebx,%eax
 8049982:	05 30 cc 00 00       	add    $0xcc30,%eax
 8049987:	8d 1c 06             	lea    (%esi,%eax,1),%ebx
 804998a:	39 f3                	cmp    %esi,%ebx
 804998c:	74 11                	je     804999f <_ZN7ManagerC1Ev+0x103>
 804998e:	81 eb 10 02 00 00    	sub    $0x210,%ebx
 8049994:	8b 03                	mov    (%ebx),%eax
 8049996:	8b 00                	mov    (%eax),%eax
 8049998:	89 1c 24             	mov    %ebx,(%esp)
 804999b:	ff d0                	call   *%eax
 804999d:	eb eb                	jmp    804998a <_ZN7ManagerC1Ev+0xee>
 804999f:	89 fe                	mov    %edi,%esi
 80499a1:	eb 34                	jmp    80499d7 <_ZN7ManagerC1Ev+0x13b>
 80499a3:	89 c6                	mov    %eax,%esi
 80499a5:	8b 45 08             	mov    0x8(%ebp),%eax
 80499a8:	05 98 01 00 00       	add    $0x198,%eax
 80499ad:	85 c0                	test   %eax,%eax
 80499af:	74 26                	je     80499d7 <_ZN7ManagerC1Ev+0x13b>
 80499b1:	8b 45 08             	mov    0x8(%ebp),%eax
 80499b4:	8d 98 d8 cf 00 00    	lea    0xcfd8(%eax),%ebx
 80499ba:	8b 45 08             	mov    0x8(%ebp),%eax
 80499bd:	05 98 01 00 00       	add    $0x198,%eax
 80499c2:	39 c3                	cmp    %eax,%ebx
 80499c4:	74 11                	je     80499d7 <_ZN7ManagerC1Ev+0x13b>
 80499c6:	81 eb 10 02 00 00    	sub    $0x210,%ebx
 80499cc:	8b 03                	mov    (%ebx),%eax
 80499ce:	8b 00                	mov    (%eax),%eax
 80499d0:	89 1c 24             	mov    %ebx,(%esp)
 80499d3:	ff d0                	call   *%eax
 80499d5:	eb e3                	jmp    80499ba <_ZN7ManagerC1Ev+0x11e>
 80499d7:	8b 45 08             	mov    0x8(%ebp),%eax
 80499da:	83 c0 08             	add    $0x8,%eax
 80499dd:	85 c0                	test   %eax,%eax
 80499df:	74 20                	je     8049a01 <_ZN7ManagerC1Ev+0x165>
 80499e1:	8b 45 08             	mov    0x8(%ebp),%eax
 80499e4:	8d 98 98 01 00 00    	lea    0x198(%eax),%ebx
 80499ea:	8b 45 08             	mov    0x8(%ebp),%eax
 80499ed:	83 c0 08             	add    $0x8,%eax
 80499f0:	39 c3                	cmp    %eax,%ebx
 80499f2:	74 0d                	je     8049a01 <_ZN7ManagerC1Ev+0x165>
 80499f4:	83 eb 04             	sub    $0x4,%ebx
 80499f7:	89 1c 24             	mov    %ebx,(%esp)
 80499fa:	e8 41 f3 ff ff       	call   8048d40 <_ZNSsD1Ev@plt>
 80499ff:	eb e9                	jmp    80499ea <_ZN7ManagerC1Ev+0x14e>
 8049a01:	89 f0                	mov    %esi,%eax
 8049a03:	89 04 24             	mov    %eax,(%esp)
 8049a06:	e8 b5 f4 ff ff       	call   8048ec0 <_Unwind_Resume@plt>
 8049a0b:	90                   	nop

08049a0c <_ZN7ManagerD1Ev>:
 8049a0c:	55                   	push   %ebp
 8049a0d:	89 e5                	mov    %esp,%ebp
 8049a0f:	56                   	push   %esi
 8049a10:	53                   	push   %ebx
 8049a11:	83 ec 10             	sub    $0x10,%esp
 8049a14:	8b 45 08             	mov    0x8(%ebp),%eax
 8049a17:	c7 00 c8 d8 04 08    	movl   $0x804d8c8,(%eax)
 8049a1d:	8b 45 08             	mov    0x8(%ebp),%eax
 8049a20:	05 98 01 00 00       	add    $0x198,%eax
 8049a25:	85 c0                	test   %eax,%eax
 8049a27:	74 26                	je     8049a4f <_ZN7ManagerD1Ev+0x43>
 8049a29:	8b 45 08             	mov    0x8(%ebp),%eax
 8049a2c:	8d 98 d8 cf 00 00    	lea    0xcfd8(%eax),%ebx
 8049a32:	8b 45 08             	mov    0x8(%ebp),%eax
 8049a35:	05 98 01 00 00       	add    $0x198,%eax
 8049a3a:	39 c3                	cmp    %eax,%ebx
 8049a3c:	74 11                	je     8049a4f <_ZN7ManagerD1Ev+0x43>
 8049a3e:	81 eb 10 02 00 00    	sub    $0x210,%ebx
 8049a44:	8b 03                	mov    (%ebx),%eax
 8049a46:	8b 00                	mov    (%eax),%eax
 8049a48:	89 1c 24             	mov    %ebx,(%esp)
 8049a4b:	ff d0                	call   *%eax
 8049a4d:	eb e3                	jmp    8049a32 <_ZN7ManagerD1Ev+0x26>
 8049a4f:	8b 45 08             	mov    0x8(%ebp),%eax
 8049a52:	83 c0 08             	add    $0x8,%eax
 8049a55:	85 c0                	test   %eax,%eax
 8049a57:	74 56                	je     8049aaf <_ZN7ManagerD1Ev+0xa3>
 8049a59:	8b 45 08             	mov    0x8(%ebp),%eax
 8049a5c:	8d 98 98 01 00 00    	lea    0x198(%eax),%ebx
 8049a62:	8b 45 08             	mov    0x8(%ebp),%eax
 8049a65:	83 c0 08             	add    $0x8,%eax
 8049a68:	39 c3                	cmp    %eax,%ebx
 8049a6a:	74 43                	je     8049aaf <_ZN7ManagerD1Ev+0xa3>
 8049a6c:	83 eb 04             	sub    $0x4,%ebx
 8049a6f:	89 1c 24             	mov    %ebx,(%esp)
 8049a72:	e8 c9 f2 ff ff       	call   8048d40 <_ZNSsD1Ev@plt>
 8049a77:	eb e9                	jmp    8049a62 <_ZN7ManagerD1Ev+0x56>
 8049a79:	89 c6                	mov    %eax,%esi
 8049a7b:	8b 45 08             	mov    0x8(%ebp),%eax
 8049a7e:	83 c0 08             	add    $0x8,%eax
 8049a81:	85 c0                	test   %eax,%eax
 8049a83:	74 20                	je     8049aa5 <_ZN7ManagerD1Ev+0x99>
 8049a85:	8b 45 08             	mov    0x8(%ebp),%eax
 8049a88:	8d 98 98 01 00 00    	lea    0x198(%eax),%ebx
 8049a8e:	8b 45 08             	mov    0x8(%ebp),%eax
 8049a91:	83 c0 08             	add    $0x8,%eax
 8049a94:	39 c3                	cmp    %eax,%ebx
 8049a96:	74 0d                	je     8049aa5 <_ZN7ManagerD1Ev+0x99>
 8049a98:	83 eb 04             	sub    $0x4,%ebx
 8049a9b:	89 1c 24             	mov    %ebx,(%esp)
 8049a9e:	e8 9d f2 ff ff       	call   8048d40 <_ZNSsD1Ev@plt>
 8049aa3:	eb e9                	jmp    8049a8e <_ZN7ManagerD1Ev+0x82>
 8049aa5:	89 f0                	mov    %esi,%eax
 8049aa7:	89 04 24             	mov    %eax,(%esp)
 8049aaa:	e8 11 f4 ff ff       	call   8048ec0 <_Unwind_Resume@plt>
 8049aaf:	90                   	nop
 8049ab0:	83 c4 10             	add    $0x10,%esp
 8049ab3:	5b                   	pop    %ebx
 8049ab4:	5e                   	pop    %esi
 8049ab5:	5d                   	pop    %ebp
 8049ab6:	c3                   	ret    
 8049ab7:	90                   	nop

08049ab8 <_ZN7Manager7startUpEv>:
 8049ab8:	55                   	push   %ebp
 8049ab9:	89 e5                	mov    %esp,%ebp
 8049abb:	5d                   	pop    %ebp
 8049abc:	c3                   	ret    
 8049abd:	90                   	nop

08049abe <_ZN7Manager8shutDownEv>:
 8049abe:	55                   	push   %ebp
 8049abf:	89 e5                	mov    %esp,%ebp
 8049ac1:	5d                   	pop    %ebp
 8049ac2:	c3                   	ret    
 8049ac3:	90                   	nop

08049ac4 <_ZN7Manager16registerInterestEP6ObjectSs>:
 8049ac4:	55                   	push   %ebp
 8049ac5:	89 e5                	mov    %esp,%ebp
 8049ac7:	53                   	push   %ebx
 8049ac8:	83 ec 24             	sub    $0x24,%esp
 8049acb:	8b 45 08             	mov    0x8(%ebp),%eax
 8049ace:	8b 00                	mov    (%eax),%eax
 8049ad0:	8b 18                	mov    (%eax),%ebx
 8049ad2:	8b 45 10             	mov    0x10(%ebp),%eax
 8049ad5:	89 44 24 04          	mov    %eax,0x4(%esp)
 8049ad9:	8d 45 f0             	lea    -0x10(%ebp),%eax
 8049adc:	89 04 24             	mov    %eax,(%esp)
 8049adf:	e8 1c f2 ff ff       	call   8048d00 <_ZNSsC1ERKSs@plt>
 8049ae4:	8d 45 f0             	lea    -0x10(%ebp),%eax
 8049ae7:	89 44 24 04          	mov    %eax,0x4(%esp)
 8049aeb:	8b 45 08             	mov    0x8(%ebp),%eax
 8049aee:	89 04 24             	mov    %eax,(%esp)
 8049af1:	ff d3                	call   *%ebx
 8049af3:	89 c3                	mov    %eax,%ebx
 8049af5:	83 f3 01             	xor    $0x1,%ebx
 8049af8:	8d 45 f0             	lea    -0x10(%ebp),%eax
 8049afb:	89 04 24             	mov    %eax,(%esp)
 8049afe:	e8 3d f2 ff ff       	call   8048d40 <_ZNSsD1Ev@plt>
 8049b03:	84 db                	test   %bl,%bl
 8049b05:	74 0a                	je     8049b11 <_ZN7Manager16registerInterestEP6ObjectSs+0x4d>
 8049b07:	b8 ff ff ff ff       	mov    $0xffffffff,%eax
 8049b0c:	e9 db 00 00 00       	jmp    8049bec <_ZN7Manager16registerInterestEP6ObjectSs+0x128>
 8049b11:	c7 45 f4 00 00 00 00 	movl   $0x0,-0xc(%ebp)
 8049b18:	eb 54                	jmp    8049b6e <_ZN7Manager16registerInterestEP6ObjectSs+0xaa>
 8049b1a:	8b 45 f4             	mov    -0xc(%ebp),%eax
 8049b1d:	c1 e0 02             	shl    $0x2,%eax
 8049b20:	03 45 08             	add    0x8(%ebp),%eax
 8049b23:	8d 50 08             	lea    0x8(%eax),%edx
 8049b26:	8b 45 10             	mov    0x10(%ebp),%eax
 8049b29:	89 44 24 04          	mov    %eax,0x4(%esp)
 8049b2d:	89 14 24             	mov    %edx,(%esp)
 8049b30:	e8 4a 05 00 00       	call   804a07f <_ZSteqIcEN9__gnu_cxx11__enable_ifIXsrSt9__is_charIT_E7__valueEbE6__typeERKSbIS3_St11char_traitsIS3_ESaIS3_EESC_>
 8049b35:	84 c0                	test   %al,%al
 8049b37:	74 31                	je     8049b6a <_ZN7Manager16registerInterestEP6ObjectSs+0xa6>
 8049b39:	8b 45 f4             	mov    -0xc(%ebp),%eax
 8049b3c:	c1 e0 04             	shl    $0x4,%eax
 8049b3f:	89 c2                	mov    %eax,%edx
 8049b41:	c1 e2 05             	shl    $0x5,%edx
 8049b44:	01 d0                	add    %edx,%eax
 8049b46:	05 90 01 00 00       	add    $0x190,%eax
 8049b4b:	03 45 08             	add    0x8(%ebp),%eax
 8049b4e:	8d 50 08             	lea    0x8(%eax),%edx
 8049b51:	8b 45 0c             	mov    0xc(%ebp),%eax
 8049b54:	89 44 24 04          	mov    %eax,0x4(%esp)
 8049b58:	89 14 24             	mov    %edx,(%esp)
 8049b5b:	e8 ac 2c 00 00       	call   804c80c <_ZN10ObjectList6insertEP6Object>
 8049b60:	b8 00 00 00 00       	mov    $0x0,%eax
 8049b65:	e9 82 00 00 00       	jmp    8049bec <_ZN7Manager16registerInterestEP6ObjectSs+0x128>
 8049b6a:	83 45 f4 01          	addl   $0x1,-0xc(%ebp)
 8049b6e:	8b 45 08             	mov    0x8(%ebp),%eax
 8049b71:	8b 40 04             	mov    0x4(%eax),%eax
 8049b74:	3b 45 f4             	cmp    -0xc(%ebp),%eax
 8049b77:	0f 9d c0             	setge  %al
 8049b7a:	84 c0                	test   %al,%al
 8049b7c:	75 9c                	jne    8049b1a <_ZN7Manager16registerInterestEP6ObjectSs+0x56>
 8049b7e:	8b 45 08             	mov    0x8(%ebp),%eax
 8049b81:	8b 40 04             	mov    0x4(%eax),%eax
 8049b84:	83 f8 63             	cmp    $0x63,%eax
 8049b87:	7e 07                	jle    8049b90 <_ZN7Manager16registerInterestEP6ObjectSs+0xcc>
 8049b89:	b8 ff ff ff ff       	mov    $0xffffffff,%eax
 8049b8e:	eb 5c                	jmp    8049bec <_ZN7Manager16registerInterestEP6ObjectSs+0x128>
 8049b90:	8b 45 08             	mov    0x8(%ebp),%eax
 8049b93:	8b 40 04             	mov    0x4(%eax),%eax
 8049b96:	c1 e0 02             	shl    $0x2,%eax
 8049b99:	03 45 08             	add    0x8(%ebp),%eax
 8049b9c:	8d 50 08             	lea    0x8(%eax),%edx
 8049b9f:	8b 45 10             	mov    0x10(%ebp),%eax
 8049ba2:	89 44 24 04          	mov    %eax,0x4(%esp)
 8049ba6:	89 14 24             	mov    %edx,(%esp)
 8049ba9:	e8 42 f3 ff ff       	call   8048ef0 <_ZNSsaSERKSs@plt>
 8049bae:	8b 45 08             	mov    0x8(%ebp),%eax
 8049bb1:	8b 40 04             	mov    0x4(%eax),%eax
 8049bb4:	c1 e0 04             	shl    $0x4,%eax
 8049bb7:	89 c2                	mov    %eax,%edx
 8049bb9:	c1 e2 05             	shl    $0x5,%edx
 8049bbc:	01 d0                	add    %edx,%eax
 8049bbe:	05 90 01 00 00       	add    $0x190,%eax
 8049bc3:	03 45 08             	add    0x8(%ebp),%eax
 8049bc6:	8d 50 08             	lea    0x8(%eax),%edx
 8049bc9:	8b 45 0c             	mov    0xc(%ebp),%eax
 8049bcc:	89 44 24 04          	mov    %eax,0x4(%esp)
 8049bd0:	89 14 24             	mov    %edx,(%esp)
 8049bd3:	e8 34 2c 00 00       	call   804c80c <_ZN10ObjectList6insertEP6Object>
 8049bd8:	8b 45 08             	mov    0x8(%ebp),%eax
 8049bdb:	8b 40 04             	mov    0x4(%eax),%eax
 8049bde:	8d 50 01             	lea    0x1(%eax),%edx
 8049be1:	8b 45 08             	mov    0x8(%ebp),%eax
 8049be4:	89 50 04             	mov    %edx,0x4(%eax)
 8049be7:	b8 00 00 00 00       	mov    $0x0,%eax
 8049bec:	83 c4 24             	add    $0x24,%esp
 8049bef:	5b                   	pop    %ebx
 8049bf0:	5d                   	pop    %ebp
 8049bf1:	c3                   	ret    
 8049bf2:	89 c3                	mov    %eax,%ebx
 8049bf4:	8d 45 f0             	lea    -0x10(%ebp),%eax
 8049bf7:	89 04 24             	mov    %eax,(%esp)
 8049bfa:	e8 41 f1 ff ff       	call   8048d40 <_ZNSsD1Ev@plt>
 8049bff:	89 d8                	mov    %ebx,%eax
 8049c01:	89 04 24             	mov    %eax,(%esp)
 8049c04:	e8 b7 f2 ff ff       	call   8048ec0 <_Unwind_Resume@plt>
 8049c09:	90                   	nop

08049c0a <_ZN7Manager18unregisterInterestEP6ObjectSs>:
 8049c0a:	55                   	push   %ebp
 8049c0b:	89 e5                	mov    %esp,%ebp
 8049c0d:	83 ec 28             	sub    $0x28,%esp
 8049c10:	c7 45 f0 00 00 00 00 	movl   $0x0,-0x10(%ebp)
 8049c17:	e9 0a 01 00 00       	jmp    8049d26 <_ZN7Manager18unregisterInterestEP6ObjectSs+0x11c>
 8049c1c:	8b 45 f0             	mov    -0x10(%ebp),%eax
 8049c1f:	c1 e0 02             	shl    $0x2,%eax
 8049c22:	03 45 08             	add    0x8(%ebp),%eax
 8049c25:	8d 50 08             	lea    0x8(%eax),%edx
 8049c28:	8b 45 10             	mov    0x10(%ebp),%eax
 8049c2b:	89 44 24 04          	mov    %eax,0x4(%esp)
 8049c2f:	89 14 24             	mov    %edx,(%esp)
 8049c32:	e8 48 04 00 00       	call   804a07f <_ZSteqIcEN9__gnu_cxx11__enable_ifIXsrSt9__is_charIT_E7__valueEbE6__typeERKSbIS3_St11char_traitsIS3_ESaIS3_EESC_>
 8049c37:	84 c0                	test   %al,%al
 8049c39:	0f 84 e3 00 00 00    	je     8049d22 <_ZN7Manager18unregisterInterestEP6ObjectSs+0x118>
 8049c3f:	8b 45 f0             	mov    -0x10(%ebp),%eax
 8049c42:	c1 e0 04             	shl    $0x4,%eax
 8049c45:	89 c2                	mov    %eax,%edx
 8049c47:	c1 e2 05             	shl    $0x5,%edx
 8049c4a:	01 d0                	add    %edx,%eax
 8049c4c:	05 90 01 00 00       	add    $0x190,%eax
 8049c51:	03 45 08             	add    0x8(%ebp),%eax
 8049c54:	8d 50 08             	lea    0x8(%eax),%edx
 8049c57:	8b 45 0c             	mov    0xc(%ebp),%eax
 8049c5a:	89 44 24 04          	mov    %eax,0x4(%esp)
 8049c5e:	89 14 24             	mov    %edx,(%esp)
 8049c61:	e8 16 2c 00 00       	call   804c87c <_ZN10ObjectList6removeEP6Object>
 8049c66:	8b 55 08             	mov    0x8(%ebp),%edx
 8049c69:	8b 45 f0             	mov    -0x10(%ebp),%eax
 8049c6c:	c1 e0 04             	shl    $0x4,%eax
 8049c6f:	89 c1                	mov    %eax,%ecx
 8049c71:	c1 e1 05             	shl    $0x5,%ecx
 8049c74:	01 c8                	add    %ecx,%eax
 8049c76:	01 d0                	add    %edx,%eax
 8049c78:	05 6c 03 00 00       	add    $0x36c,%eax
 8049c7d:	8b 00                	mov    (%eax),%eax
 8049c7f:	85 c0                	test   %eax,%eax
 8049c81:	0f 85 94 00 00 00    	jne    8049d1b <_ZN7Manager18unregisterInterestEP6ObjectSs+0x111>
 8049c87:	8b 45 f0             	mov    -0x10(%ebp),%eax
 8049c8a:	89 45 f4             	mov    %eax,-0xc(%ebp)
 8049c8d:	eb 6a                	jmp    8049cf9 <_ZN7Manager18unregisterInterestEP6ObjectSs+0xef>
 8049c8f:	8b 45 f0             	mov    -0x10(%ebp),%eax
 8049c92:	83 c0 01             	add    $0x1,%eax
 8049c95:	c1 e0 04             	shl    $0x4,%eax
 8049c98:	89 c2                	mov    %eax,%edx
 8049c9a:	c1 e2 05             	shl    $0x5,%edx
 8049c9d:	01 d0                	add    %edx,%eax
 8049c9f:	05 90 01 00 00       	add    $0x190,%eax
 8049ca4:	03 45 08             	add    0x8(%ebp),%eax
 8049ca7:	8d 50 08             	lea    0x8(%eax),%edx
 8049caa:	8b 45 f0             	mov    -0x10(%ebp),%eax
 8049cad:	c1 e0 04             	shl    $0x4,%eax
 8049cb0:	89 c1                	mov    %eax,%ecx
 8049cb2:	c1 e1 05             	shl    $0x5,%ecx
 8049cb5:	01 c8                	add    %ecx,%eax
 8049cb7:	05 90 01 00 00       	add    $0x190,%eax
 8049cbc:	03 45 08             	add    0x8(%ebp),%eax
 8049cbf:	83 c0 08             	add    $0x8,%eax
 8049cc2:	89 54 24 04          	mov    %edx,0x4(%esp)
 8049cc6:	89 04 24             	mov    %eax,(%esp)
 8049cc9:	e8 c8 02 00 00       	call   8049f96 <_ZN10ObjectListaSERKS_>
 8049cce:	8b 45 f0             	mov    -0x10(%ebp),%eax
 8049cd1:	83 c0 01             	add    $0x1,%eax
 8049cd4:	c1 e0 02             	shl    $0x2,%eax
 8049cd7:	03 45 08             	add    0x8(%ebp),%eax
 8049cda:	8d 50 08             	lea    0x8(%eax),%edx
 8049cdd:	8b 45 f0             	mov    -0x10(%ebp),%eax
 8049ce0:	c1 e0 02             	shl    $0x2,%eax
 8049ce3:	03 45 08             	add    0x8(%ebp),%eax
 8049ce6:	83 c0 08             	add    $0x8,%eax
 8049ce9:	89 54 24 04          	mov    %edx,0x4(%esp)
 8049ced:	89 04 24             	mov    %eax,(%esp)
 8049cf0:	e8 fb f1 ff ff       	call   8048ef0 <_ZNSsaSERKSs@plt>
 8049cf5:	83 45 f4 01          	addl   $0x1,-0xc(%ebp)
 8049cf9:	8b 45 08             	mov    0x8(%ebp),%eax
 8049cfc:	8b 40 04             	mov    0x4(%eax),%eax
 8049cff:	83 e8 01             	sub    $0x1,%eax
 8049d02:	3b 45 f4             	cmp    -0xc(%ebp),%eax
 8049d05:	0f 9f c0             	setg   %al
 8049d08:	84 c0                	test   %al,%al
 8049d0a:	75 83                	jne    8049c8f <_ZN7Manager18unregisterInterestEP6ObjectSs+0x85>
 8049d0c:	8b 45 08             	mov    0x8(%ebp),%eax
 8049d0f:	8b 40 04             	mov    0x4(%eax),%eax
 8049d12:	8d 50 ff             	lea    -0x1(%eax),%edx
 8049d15:	8b 45 08             	mov    0x8(%ebp),%eax
 8049d18:	89 50 04             	mov    %edx,0x4(%eax)
 8049d1b:	b8 00 00 00 00       	mov    $0x0,%eax
 8049d20:	eb 1d                	jmp    8049d3f <_ZN7Manager18unregisterInterestEP6ObjectSs+0x135>
 8049d22:	83 45 f0 01          	addl   $0x1,-0x10(%ebp)
 8049d26:	8b 45 08             	mov    0x8(%ebp),%eax
 8049d29:	8b 40 04             	mov    0x4(%eax),%eax
 8049d2c:	3b 45 f0             	cmp    -0x10(%ebp),%eax
 8049d2f:	0f 9d c0             	setge  %al
 8049d32:	84 c0                	test   %al,%al
 8049d34:	0f 85 e2 fe ff ff    	jne    8049c1c <_ZN7Manager18unregisterInterestEP6ObjectSs+0x12>
 8049d3a:	b8 ff ff ff ff       	mov    $0xffffffff,%eax
 8049d3f:	c9                   	leave  
 8049d40:	c3                   	ret    
 8049d41:	90                   	nop

08049d42 <_ZN7Manager7onEventEP5Event>:
 8049d42:	55                   	push   %ebp
 8049d43:	89 e5                	mov    %esp,%ebp
 8049d45:	56                   	push   %esi
 8049d46:	53                   	push   %ebx
 8049d47:	83 ec 20             	sub    $0x20,%esp
 8049d4a:	c7 45 ec 00 00 00 00 	movl   $0x0,-0x14(%ebp)
 8049d51:	e9 bd 00 00 00       	jmp    8049e13 <_ZN7Manager7onEventEP5Event+0xd1>
 8049d56:	8d 45 e8             	lea    -0x18(%ebp),%eax
 8049d59:	8b 55 0c             	mov    0xc(%ebp),%edx
 8049d5c:	89 54 24 04          	mov    %edx,0x4(%esp)
 8049d60:	89 04 24             	mov    %eax,(%esp)
 8049d63:	e8 12 f5 ff ff       	call   804927a <_ZN5Event7getTypeEv>
 8049d68:	83 ec 04             	sub    $0x4,%esp
 8049d6b:	8b 45 ec             	mov    -0x14(%ebp),%eax
 8049d6e:	c1 e0 02             	shl    $0x2,%eax
 8049d71:	03 45 08             	add    0x8(%ebp),%eax
 8049d74:	8d 50 08             	lea    0x8(%eax),%edx
 8049d77:	8d 45 e8             	lea    -0x18(%ebp),%eax
 8049d7a:	89 44 24 04          	mov    %eax,0x4(%esp)
 8049d7e:	89 14 24             	mov    %edx,(%esp)
 8049d81:	e8 f9 02 00 00       	call   804a07f <_ZSteqIcEN9__gnu_cxx11__enable_ifIXsrSt9__is_charIT_E7__valueEbE6__typeERKSbIS3_St11char_traitsIS3_ESaIS3_EESC_>
 8049d86:	89 c3                	mov    %eax,%ebx
 8049d88:	8d 45 e8             	lea    -0x18(%ebp),%eax
 8049d8b:	89 04 24             	mov    %eax,(%esp)
 8049d8e:	e8 ad ef ff ff       	call   8048d40 <_ZNSsD1Ev@plt>
 8049d93:	84 db                	test   %bl,%bl
 8049d95:	74 78                	je     8049e0f <_ZN7Manager7onEventEP5Event+0xcd>
 8049d97:	8b 45 ec             	mov    -0x14(%ebp),%eax
 8049d9a:	c1 e0 04             	shl    $0x4,%eax
 8049d9d:	89 c2                	mov    %eax,%edx
 8049d9f:	c1 e2 05             	shl    $0x5,%edx
 8049da2:	01 d0                	add    %edx,%eax
 8049da4:	05 90 01 00 00       	add    $0x190,%eax
 8049da9:	03 45 08             	add    0x8(%ebp),%eax
 8049dac:	83 c0 08             	add    $0x8,%eax
 8049daf:	89 45 f0             	mov    %eax,-0x10(%ebp)
 8049db2:	c7 04 24 08 00 00 00 	movl   $0x8,(%esp)
 8049db9:	e8 62 f0 ff ff       	call   8048e20 <_Znwj@plt>
 8049dbe:	89 c3                	mov    %eax,%ebx
 8049dc0:	8b 45 f0             	mov    -0x10(%ebp),%eax
 8049dc3:	89 44 24 04          	mov    %eax,0x4(%esp)
 8049dc7:	89 1c 24             	mov    %ebx,(%esp)
 8049dca:	e8 91 2c 00 00       	call   804ca60 <_ZN18ObjectListIteratorC1EPK10ObjectList>
 8049dcf:	89 5d f4             	mov    %ebx,-0xc(%ebp)
 8049dd2:	eb 29                	jmp    8049dfd <_ZN7Manager7onEventEP5Event+0xbb>
 8049dd4:	8b 45 f4             	mov    -0xc(%ebp),%eax
 8049dd7:	89 04 24             	mov    %eax,(%esp)
 8049dda:	e8 07 2d 00 00       	call   804cae6 <_ZN18ObjectListIterator11currentItemEv>
 8049ddf:	8b 10                	mov    (%eax),%edx
 8049de1:	83 c2 08             	add    $0x8,%edx
 8049de4:	8b 0a                	mov    (%edx),%ecx
 8049de6:	8b 55 0c             	mov    0xc(%ebp),%edx
 8049de9:	89 54 24 04          	mov    %edx,0x4(%esp)
 8049ded:	89 04 24             	mov    %eax,(%esp)
 8049df0:	ff d1                	call   *%ecx
 8049df2:	8b 45 f4             	mov    -0xc(%ebp),%eax
 8049df5:	89 04 24             	mov    %eax,(%esp)
 8049df8:	e8 99 2c 00 00       	call   804ca96 <_ZN18ObjectListIterator4nextEv>
 8049dfd:	8b 45 f4             	mov    -0xc(%ebp),%eax
 8049e00:	89 04 24             	mov    %eax,(%esp)
 8049e03:	e8 a2 2c 00 00       	call   804caaa <_ZN18ObjectListIterator6isDoneEv>
 8049e08:	83 f0 01             	xor    $0x1,%eax
 8049e0b:	84 c0                	test   %al,%al
 8049e0d:	75 c5                	jne    8049dd4 <_ZN7Manager7onEventEP5Event+0x92>
 8049e0f:	83 45 ec 01          	addl   $0x1,-0x14(%ebp)
 8049e13:	8b 45 08             	mov    0x8(%ebp),%eax
 8049e16:	8b 40 04             	mov    0x4(%eax),%eax
 8049e19:	3b 45 ec             	cmp    -0x14(%ebp),%eax
 8049e1c:	0f 9f c0             	setg   %al
 8049e1f:	84 c0                	test   %al,%al
 8049e21:	0f 85 2f ff ff ff    	jne    8049d56 <_ZN7Manager7onEventEP5Event+0x14>
 8049e27:	eb 2b                	jmp    8049e54 <_ZN7Manager7onEventEP5Event+0x112>
 8049e29:	89 c3                	mov    %eax,%ebx
 8049e2b:	8d 45 e8             	lea    -0x18(%ebp),%eax
 8049e2e:	89 04 24             	mov    %eax,(%esp)
 8049e31:	e8 0a ef ff ff       	call   8048d40 <_ZNSsD1Ev@plt>
 8049e36:	89 d8                	mov    %ebx,%eax
 8049e38:	89 04 24             	mov    %eax,(%esp)
 8049e3b:	e8 80 f0 ff ff       	call   8048ec0 <_Unwind_Resume@plt>
 8049e40:	89 c6                	mov    %eax,%esi
 8049e42:	89 1c 24             	mov    %ebx,(%esp)
 8049e45:	e8 56 ee ff ff       	call   8048ca0 <_ZdlPv@plt>
 8049e4a:	89 f0                	mov    %esi,%eax
 8049e4c:	89 04 24             	mov    %eax,(%esp)
 8049e4f:	e8 6c f0 ff ff       	call   8048ec0 <_Unwind_Resume@plt>
 8049e54:	8d 65 f8             	lea    -0x8(%ebp),%esp
 8049e57:	5b                   	pop    %ebx
 8049e58:	5e                   	pop    %esi
 8049e59:	5d                   	pop    %ebp
 8049e5a:	c3                   	ret    
 8049e5b:	90                   	nop

08049e5c <_ZN7Manager7isValidESs>:
 8049e5c:	55                   	push   %ebp
 8049e5d:	89 e5                	mov    %esp,%ebp
 8049e5f:	b8 00 00 00 00       	mov    $0x0,%eax
 8049e64:	5d                   	pop    %ebp
 8049e65:	c3                   	ret    

08049e66 <_ZNSt11char_traitsIcE7compareEPKcS2_j>:
 8049e66:	55                   	push   %ebp
 8049e67:	89 e5                	mov    %esp,%ebp
 8049e69:	83 ec 18             	sub    $0x18,%esp
 8049e6c:	8b 45 10             	mov    0x10(%ebp),%eax
 8049e6f:	89 44 24 08          	mov    %eax,0x8(%esp)
 8049e73:	8b 45 0c             	mov    0xc(%ebp),%eax
 8049e76:	89 44 24 04          	mov    %eax,0x4(%esp)
 8049e7a:	8b 45 08             	mov    0x8(%ebp),%eax
 8049e7d:	89 04 24             	mov    %eax,(%esp)
 8049e80:	e8 bb ed ff ff       	call   8048c40 <memcmp@plt>
 8049e85:	c9                   	leave  
 8049e86:	c3                   	ret    
 8049e87:	90                   	nop

08049e88 <_ZN6ObjectaSERKS_>:
 8049e88:	55                   	push   %ebp
 8049e89:	89 e5                	mov    %esp,%ebp
 8049e8b:	57                   	push   %edi
 8049e8c:	56                   	push   %esi
 8049e8d:	53                   	push   %ebx
 8049e8e:	83 ec 1c             	sub    $0x1c,%esp
 8049e91:	8b 45 0c             	mov    0xc(%ebp),%eax
 8049e94:	8b 50 04             	mov    0x4(%eax),%edx
 8049e97:	8b 45 08             	mov    0x8(%ebp),%eax
 8049e9a:	89 50 04             	mov    %edx,0x4(%eax)
 8049e9d:	8b 45 08             	mov    0x8(%ebp),%eax
 8049ea0:	83 c0 08             	add    $0x8,%eax
 8049ea3:	89 c3                	mov    %eax,%ebx
 8049ea5:	be 63 00 00 00       	mov    $0x63,%esi
 8049eaa:	8b 45 0c             	mov    0xc(%ebp),%eax
 8049ead:	8d 78 08             	lea    0x8(%eax),%edi
 8049eb0:	eb 15                	jmp    8049ec7 <_ZN6ObjectaSERKS_+0x3f>
 8049eb2:	89 7c 24 04          	mov    %edi,0x4(%esp)
 8049eb6:	89 1c 24             	mov    %ebx,(%esp)
 8049eb9:	e8 32 f0 ff ff       	call   8048ef0 <_ZNSsaSERKSs@plt>
 8049ebe:	83 c3 04             	add    $0x4,%ebx
 8049ec1:	83 c7 04             	add    $0x4,%edi
 8049ec4:	83 ee 01             	sub    $0x1,%esi
 8049ec7:	83 fe ff             	cmp    $0xffffffff,%esi
 8049eca:	0f 95 c0             	setne  %al
 8049ecd:	84 c0                	test   %al,%al
 8049ecf:	75 e1                	jne    8049eb2 <_ZN6ObjectaSERKS_+0x2a>
 8049ed1:	8b 45 08             	mov    0x8(%ebp),%eax
 8049ed4:	8b 55 0c             	mov    0xc(%ebp),%edx
 8049ed7:	8b 8a 98 01 00 00    	mov    0x198(%edx),%ecx
 8049edd:	89 88 98 01 00 00    	mov    %ecx,0x198(%eax)
 8049ee3:	8b 92 9c 01 00 00    	mov    0x19c(%edx),%edx
 8049ee9:	89 90 9c 01 00 00    	mov    %edx,0x19c(%eax)
 8049eef:	8b 45 0c             	mov    0xc(%ebp),%eax
 8049ef2:	8d 90 a0 01 00 00    	lea    0x1a0(%eax),%edx
 8049ef8:	8b 45 08             	mov    0x8(%ebp),%eax
 8049efb:	05 a0 01 00 00       	add    $0x1a0,%eax
 8049f00:	89 54 24 04          	mov    %edx,0x4(%esp)
 8049f04:	89 04 24             	mov    %eax,(%esp)
 8049f07:	e8 e4 ef ff ff       	call   8048ef0 <_ZNSsaSERKSs@plt>
 8049f0c:	8b 45 0c             	mov    0xc(%ebp),%eax
 8049f0f:	8b 90 a4 01 00 00    	mov    0x1a4(%eax),%edx
 8049f15:	8b 45 08             	mov    0x8(%ebp),%eax
 8049f18:	89 90 a4 01 00 00    	mov    %edx,0x1a4(%eax)
 8049f1e:	8b 45 0c             	mov    0xc(%ebp),%eax
 8049f21:	dd 80 a8 01 00 00    	fldl   0x1a8(%eax)
 8049f27:	8b 45 08             	mov    0x8(%ebp),%eax
 8049f2a:	dd 98 a8 01 00 00    	fstpl  0x1a8(%eax)
 8049f30:	8b 45 0c             	mov    0xc(%ebp),%eax
 8049f33:	dd 80 b0 01 00 00    	fldl   0x1b0(%eax)
 8049f39:	8b 45 08             	mov    0x8(%ebp),%eax
 8049f3c:	dd 98 b0 01 00 00    	fstpl  0x1b0(%eax)
 8049f42:	8b 45 0c             	mov    0xc(%ebp),%eax
 8049f45:	dd 80 b8 01 00 00    	fldl   0x1b8(%eax)
 8049f4b:	8b 45 08             	mov    0x8(%ebp),%eax
 8049f4e:	dd 98 b8 01 00 00    	fstpl  0x1b8(%eax)
 8049f54:	8b 45 0c             	mov    0xc(%ebp),%eax
 8049f57:	dd 80 c0 01 00 00    	fldl   0x1c0(%eax)
 8049f5d:	8b 45 08             	mov    0x8(%ebp),%eax
 8049f60:	dd 98 c0 01 00 00    	fstpl  0x1c0(%eax)
 8049f66:	8b 45 0c             	mov    0xc(%ebp),%eax
 8049f69:	0f b6 90 c8 01 00 00 	movzbl 0x1c8(%eax),%edx
 8049f70:	8b 45 08             	mov    0x8(%ebp),%eax
 8049f73:	88 90 c8 01 00 00    	mov    %dl,0x1c8(%eax)
 8049f79:	8b 45 0c             	mov    0xc(%ebp),%eax
 8049f7c:	8b 90 cc 01 00 00    	mov    0x1cc(%eax),%edx
 8049f82:	8b 45 08             	mov    0x8(%ebp),%eax
 8049f85:	89 90 cc 01 00 00    	mov    %edx,0x1cc(%eax)
 8049f8b:	8b 45 08             	mov    0x8(%ebp),%eax
 8049f8e:	83 c4 1c             	add    $0x1c,%esp
 8049f91:	5b                   	pop    %ebx
 8049f92:	5e                   	pop    %esi
 8049f93:	5f                   	pop    %edi
 8049f94:	5d                   	pop    %ebp
 8049f95:	c3                   	ret    

08049f96 <_ZN10ObjectListaSERKS_>:
 8049f96:	55                   	push   %ebp
 8049f97:	89 e5                	mov    %esp,%ebp
 8049f99:	83 ec 18             	sub    $0x18,%esp
 8049f9c:	8b 55 0c             	mov    0xc(%ebp),%edx
 8049f9f:	8b 45 08             	mov    0x8(%ebp),%eax
 8049fa2:	89 54 24 04          	mov    %edx,0x4(%esp)
 8049fa6:	89 04 24             	mov    %eax,(%esp)
 8049fa9:	e8 da fe ff ff       	call   8049e88 <_ZN6ObjectaSERKS_>
 8049fae:	8b 45 0c             	mov    0xc(%ebp),%eax
 8049fb1:	8b 90 d0 01 00 00    	mov    0x1d0(%eax),%edx
 8049fb7:	8b 45 08             	mov    0x8(%ebp),%eax
 8049fba:	89 90 d0 01 00 00    	mov    %edx,0x1d0(%eax)
 8049fc0:	8b 45 08             	mov    0x8(%ebp),%eax
 8049fc3:	8b 55 0c             	mov    0xc(%ebp),%edx
 8049fc6:	8b 8a d4 01 00 00    	mov    0x1d4(%edx),%ecx
 8049fcc:	89 88 d4 01 00 00    	mov    %ecx,0x1d4(%eax)
 8049fd2:	8b 8a d8 01 00 00    	mov    0x1d8(%edx),%ecx
 8049fd8:	89 88 d8 01 00 00    	mov    %ecx,0x1d8(%eax)
 8049fde:	8b 8a dc 01 00 00    	mov    0x1dc(%edx),%ecx
 8049fe4:	89 88 dc 01 00 00    	mov    %ecx,0x1dc(%eax)
 8049fea:	8b 8a e0 01 00 00    	mov    0x1e0(%edx),%ecx
 8049ff0:	89 88 e0 01 00 00    	mov    %ecx,0x1e0(%eax)
 8049ff6:	8b 8a e4 01 00 00    	mov    0x1e4(%edx),%ecx
 8049ffc:	89 88 e4 01 00 00    	mov    %ecx,0x1e4(%eax)
 804a002:	8b 8a e8 01 00 00    	mov    0x1e8(%edx),%ecx
 804a008:	89 88 e8 01 00 00    	mov    %ecx,0x1e8(%eax)
 804a00e:	8b 8a ec 01 00 00    	mov    0x1ec(%edx),%ecx
 804a014:	89 88 ec 01 00 00    	mov    %ecx,0x1ec(%eax)
 804a01a:	8b 8a f0 01 00 00    	mov    0x1f0(%edx),%ecx
 804a020:	89 88 f0 01 00 00    	mov    %ecx,0x1f0(%eax)
 804a026:	8b 8a f4 01 00 00    	mov    0x1f4(%edx),%ecx
 804a02c:	89 88 f4 01 00 00    	mov    %ecx,0x1f4(%eax)
 804a032:	8b 8a f8 01 00 00    	mov    0x1f8(%edx),%ecx
 804a038:	89 88 f8 01 00 00    	mov    %ecx,0x1f8(%eax)
 804a03e:	8b 8a fc 01 00 00    	mov    0x1fc(%edx),%ecx
 804a044:	89 88 fc 01 00 00    	mov    %ecx,0x1fc(%eax)
 804a04a:	8b 8a 00 02 00 00    	mov    0x200(%edx),%ecx
 804a050:	89 88 00 02 00 00    	mov    %ecx,0x200(%eax)
 804a056:	8b 8a 04 02 00 00    	mov    0x204(%edx),%ecx
 804a05c:	89 88 04 02 00 00    	mov    %ecx,0x204(%eax)
 804a062:	8b 8a 08 02 00 00    	mov    0x208(%edx),%ecx
 804a068:	89 88 08 02 00 00    	mov    %ecx,0x208(%eax)
 804a06e:	8b 92 0c 02 00 00    	mov    0x20c(%edx),%edx
 804a074:	89 90 0c 02 00 00    	mov    %edx,0x20c(%eax)
 804a07a:	8b 45 08             	mov    0x8(%ebp),%eax
 804a07d:	c9                   	leave  
 804a07e:	c3                   	ret    

0804a07f <_ZSteqIcEN9__gnu_cxx11__enable_ifIXsrSt9__is_charIT_E7__valueEbE6__typeERKSbIS3_St11char_traitsIS3_ESaIS3_EESC_>:
 804a07f:	55                   	push   %ebp
 804a080:	89 e5                	mov    %esp,%ebp
 804a082:	56                   	push   %esi
 804a083:	53                   	push   %ebx
 804a084:	83 ec 10             	sub    $0x10,%esp
 804a087:	8b 45 08             	mov    0x8(%ebp),%eax
 804a08a:	89 04 24             	mov    %eax,(%esp)
 804a08d:	e8 2e ec ff ff       	call   8048cc0 <_ZNKSs4sizeEv@plt>
 804a092:	89 c3                	mov    %eax,%ebx
 804a094:	8b 45 0c             	mov    0xc(%ebp),%eax
 804a097:	89 04 24             	mov    %eax,(%esp)
 804a09a:	e8 21 ec ff ff       	call   8048cc0 <_ZNKSs4sizeEv@plt>
 804a09f:	39 c3                	cmp    %eax,%ebx
 804a0a1:	75 40                	jne    804a0e3 <_ZSteqIcEN9__gnu_cxx11__enable_ifIXsrSt9__is_charIT_E7__valueEbE6__typeERKSbIS3_St11char_traitsIS3_ESaIS3_EESC_+0x64>
 804a0a3:	8b 45 08             	mov    0x8(%ebp),%eax
 804a0a6:	89 04 24             	mov    %eax,(%esp)
 804a0a9:	e8 12 ec ff ff       	call   8048cc0 <_ZNKSs4sizeEv@plt>
 804a0ae:	89 c6                	mov    %eax,%esi
 804a0b0:	8b 45 0c             	mov    0xc(%ebp),%eax
 804a0b3:	89 04 24             	mov    %eax,(%esp)
 804a0b6:	e8 95 ed ff ff       	call   8048e50 <_ZNKSs4dataEv@plt>
 804a0bb:	89 c3                	mov    %eax,%ebx
 804a0bd:	8b 45 08             	mov    0x8(%ebp),%eax
 804a0c0:	89 04 24             	mov    %eax,(%esp)
 804a0c3:	e8 88 ed ff ff       	call   8048e50 <_ZNKSs4dataEv@plt>
 804a0c8:	89 74 24 08          	mov    %esi,0x8(%esp)
 804a0cc:	89 5c 24 04          	mov    %ebx,0x4(%esp)
 804a0d0:	89 04 24             	mov    %eax,(%esp)
 804a0d3:	e8 8e fd ff ff       	call   8049e66 <_ZNSt11char_traitsIcE7compareEPKcS2_j>
 804a0d8:	85 c0                	test   %eax,%eax
 804a0da:	75 07                	jne    804a0e3 <_ZSteqIcEN9__gnu_cxx11__enable_ifIXsrSt9__is_charIT_E7__valueEbE6__typeERKSbIS3_St11char_traitsIS3_ESaIS3_EESC_+0x64>
 804a0dc:	b8 01 00 00 00       	mov    $0x1,%eax
 804a0e1:	eb 05                	jmp    804a0e8 <_ZSteqIcEN9__gnu_cxx11__enable_ifIXsrSt9__is_charIT_E7__valueEbE6__typeERKSbIS3_St11char_traitsIS3_ESaIS3_EESC_+0x69>
 804a0e3:	b8 00 00 00 00       	mov    $0x0,%eax
 804a0e8:	83 c4 10             	add    $0x10,%esp
 804a0eb:	5b                   	pop    %ebx
 804a0ec:	5e                   	pop    %esi
 804a0ed:	5d                   	pop    %ebp
 804a0ee:	c3                   	ret    
 804a0ef:	90                   	nop

0804a0f0 <_ZN12InputManagerC1Ev>:
 804a0f0:	55                   	push   %ebp
 804a0f1:	89 e5                	mov    %esp,%ebp
 804a0f3:	83 ec 18             	sub    $0x18,%esp
 804a0f6:	8b 45 08             	mov    0x8(%ebp),%eax
 804a0f9:	89 04 24             	mov    %eax,(%esp)
 804a0fc:	e8 9b f7 ff ff       	call   804989c <_ZN7ManagerC1Ev>
 804a101:	8b 45 08             	mov    0x8(%ebp),%eax
 804a104:	c7 00 00 d9 04 08    	movl   $0x804d900,(%eax)
 804a10a:	c9                   	leave  
 804a10b:	c3                   	ret    

0804a10c <_ZN12InputManagerD1Ev>:
 804a10c:	55                   	push   %ebp
 804a10d:	89 e5                	mov    %esp,%ebp
 804a10f:	83 ec 18             	sub    $0x18,%esp
 804a112:	8b 45 08             	mov    0x8(%ebp),%eax
 804a115:	c7 00 00 d9 04 08    	movl   $0x804d900,(%eax)
 804a11b:	8b 45 08             	mov    0x8(%ebp),%eax
 804a11e:	89 04 24             	mov    %eax,(%esp)
 804a121:	e8 e6 f8 ff ff       	call   8049a0c <_ZN7ManagerD1Ev>
 804a126:	c9                   	leave  
 804a127:	c3                   	ret    

0804a128 <_ZN12InputManager11getInstanceEv>:
 804a128:	55                   	push   %ebp
 804a129:	89 e5                	mov    %esp,%ebp
 804a12b:	56                   	push   %esi
 804a12c:	53                   	push   %ebx
 804a12d:	83 ec 10             	sub    $0x10,%esp
 804a130:	b8 80 21 05 08       	mov    $0x8052180,%eax
 804a135:	0f b6 00             	movzbl (%eax),%eax
 804a138:	84 c0                	test   %al,%al
 804a13a:	75 4f                	jne    804a18b <_ZN12InputManager11getInstanceEv+0x63>
 804a13c:	c7 04 24 80 21 05 08 	movl   $0x8052180,(%esp)
 804a143:	e8 28 eb ff ff       	call   8048c70 <__cxa_guard_acquire@plt>
 804a148:	85 c0                	test   %eax,%eax
 804a14a:	0f 95 c0             	setne  %al
 804a14d:	84 c0                	test   %al,%al
 804a14f:	74 3a                	je     804a18b <_ZN12InputManager11getInstanceEv+0x63>
 804a151:	be 00 00 00 00       	mov    $0x0,%esi
 804a156:	c7 04 24 a0 21 05 08 	movl   $0x80521a0,(%esp)
 804a15d:	e8 8e ff ff ff       	call   804a0f0 <_ZN12InputManagerC1Ev>
 804a162:	c7 04 24 80 21 05 08 	movl   $0x8052180,(%esp)
 804a169:	e8 52 ec ff ff       	call   8048dc0 <__cxa_guard_release@plt>
 804a16e:	b8 0c a1 04 08       	mov    $0x804a10c,%eax
 804a173:	c7 44 24 08 c4 20 05 	movl   $0x80520c4,0x8(%esp)
 804a17a:	08 
 804a17b:	c7 44 24 04 a0 21 05 	movl   $0x80521a0,0x4(%esp)
 804a182:	08 
 804a183:	89 04 24             	mov    %eax,(%esp)
 804a186:	e8 a5 ea ff ff       	call   8048c30 <__cxa_atexit@plt>
 804a18b:	b8 a0 21 05 08       	mov    $0x80521a0,%eax
 804a190:	83 c4 10             	add    $0x10,%esp
 804a193:	5b                   	pop    %ebx
 804a194:	5e                   	pop    %esi
 804a195:	5d                   	pop    %ebp
 804a196:	c3                   	ret    
 804a197:	89 c3                	mov    %eax,%ebx
 804a199:	89 f0                	mov    %esi,%eax
 804a19b:	84 c0                	test   %al,%al
 804a19d:	75 0c                	jne    804a1ab <_ZN12InputManager11getInstanceEv+0x83>
 804a19f:	c7 04 24 80 21 05 08 	movl   $0x8052180,(%esp)
 804a1a6:	e8 e5 ec ff ff       	call   8048e90 <__cxa_guard_abort@plt>
 804a1ab:	89 d8                	mov    %ebx,%eax
 804a1ad:	89 04 24             	mov    %eax,(%esp)
 804a1b0:	e8 0b ed ff ff       	call   8048ec0 <_Unwind_Resume@plt>
 804a1b5:	90                   	nop

0804a1b6 <_ZN12InputManager7startUpEv>:
 804a1b6:	55                   	push   %ebp
 804a1b7:	89 e5                	mov    %esp,%ebp
 804a1b9:	83 ec 18             	sub    $0x18,%esp
 804a1bc:	a1 e0 20 05 08       	mov    0x80520e0,%eax
 804a1c1:	c7 44 24 04 01 00 00 	movl   $0x1,0x4(%esp)
 804a1c8:	00 
 804a1c9:	89 04 24             	mov    %eax,(%esp)
 804a1cc:	e8 ff ea ff ff       	call   8048cd0 <nodelay@plt>
 804a1d1:	e8 2a ec ff ff       	call   8048e00 <cbreak@plt>
 804a1d6:	e8 a5 eb ff ff       	call   8048d80 <nonl@plt>
 804a1db:	e8 f0 ec ff ff       	call   8048ed0 <noecho@plt>
 804a1e0:	c7 44 24 04 00 00 00 	movl   $0x0,0x4(%esp)
 804a1e7:	00 
 804a1e8:	c7 04 24 04 00 00 00 	movl   $0x4,(%esp)
 804a1ef:	e8 7c eb ff ff       	call   8048d70 <mousemask@plt>
 804a1f4:	a1 e0 20 05 08       	mov    0x80520e0,%eax
 804a1f9:	c7 44 24 04 01 00 00 	movl   $0x1,0x4(%esp)
 804a200:	00 
 804a201:	89 04 24             	mov    %eax,(%esp)
 804a204:	e8 57 ea ff ff       	call   8048c60 <keypad@plt>
 804a209:	8b 45 08             	mov    0x8(%ebp),%eax
 804a20c:	c6 80 d8 cf 00 00 01 	movb   $0x1,0xcfd8(%eax)
 804a213:	b8 00 00 00 00       	mov    $0x0,%eax
 804a218:	c9                   	leave  
 804a219:	c3                   	ret    

0804a21a <_ZN12InputManager8shutDownEv>:
 804a21a:	55                   	push   %ebp
 804a21b:	89 e5                	mov    %esp,%ebp
 804a21d:	83 ec 18             	sub    $0x18,%esp
 804a220:	c7 04 24 01 00 00 00 	movl   $0x1,(%esp)
 804a227:	e8 44 ec ff ff       	call   8048e70 <curs_set@plt>
 804a22c:	b8 00 00 00 00       	mov    $0x0,%eax
 804a231:	c9                   	leave  
 804a232:	c3                   	ret    
 804a233:	90                   	nop

0804a234 <_ZN12InputManager6getKeyEv>:
 804a234:	55                   	push   %ebp
 804a235:	89 e5                	mov    %esp,%ebp
 804a237:	53                   	push   %ebx
 804a238:	83 ec 44             	sub    $0x44,%esp
 804a23b:	a1 e0 20 05 08       	mov    0x80520e0,%eax
 804a240:	89 04 24             	mov    %eax,(%esp)
 804a243:	e8 e8 eb ff ff       	call   8048e30 <wgetch@plt>
 804a248:	89 45 f4             	mov    %eax,-0xc(%ebp)
 804a24b:	83 7d f4 ff          	cmpl   $0xffffffff,-0xc(%ebp)
 804a24f:	0f 84 c1 00 00 00    	je     804a316 <_ZN12InputManager6getKeyEv+0xe2>
 804a255:	81 7d f4 99 01 00 00 	cmpl   $0x199,-0xc(%ebp)
 804a25c:	75 16                	jne    804a274 <_ZN12InputManager6getKeyEv+0x40>
 804a25e:	8d 45 cc             	lea    -0x34(%ebp),%eax
 804a261:	89 04 24             	mov    %eax,(%esp)
 804a264:	e8 f7 ea ff ff       	call   8048d60 <getmouse@plt>
 804a269:	85 c0                	test   %eax,%eax
 804a26b:	75 07                	jne    804a274 <_ZN12InputManager6getKeyEv+0x40>
 804a26d:	b8 01 00 00 00       	mov    $0x1,%eax
 804a272:	eb 05                	jmp    804a279 <_ZN12InputManager6getKeyEv+0x45>
 804a274:	b8 00 00 00 00       	mov    $0x0,%eax
 804a279:	84 c0                	test   %al,%al
 804a27b:	74 5c                	je     804a2d9 <_ZN12InputManager6getKeyEv+0xa5>
 804a27d:	8b 45 dc             	mov    -0x24(%ebp),%eax
 804a280:	83 e0 04             	and    $0x4,%eax
 804a283:	85 c0                	test   %eax,%eax
 804a285:	0f 84 8b 00 00 00    	je     804a316 <_ZN12InputManager6getKeyEv+0xe2>
 804a28b:	8d 45 e0             	lea    -0x20(%ebp),%eax
 804a28e:	89 04 24             	mov    %eax,(%esp)
 804a291:	e8 e6 f1 ff ff       	call   804947c <_ZN10EventMouseC1Ev>
 804a296:	8b 45 d0             	mov    -0x30(%ebp),%eax
 804a299:	89 44 24 04          	mov    %eax,0x4(%esp)
 804a29d:	8d 45 e0             	lea    -0x20(%ebp),%eax
 804a2a0:	89 04 24             	mov    %eax,(%esp)
 804a2a3:	e8 82 f2 ff ff       	call   804952a <_ZN10EventMouse9setMouseXEi>
 804a2a8:	8b 45 d4             	mov    -0x2c(%ebp),%eax
 804a2ab:	89 44 24 04          	mov    %eax,0x4(%esp)
 804a2af:	8d 45 e0             	lea    -0x20(%ebp),%eax
 804a2b2:	89 04 24             	mov    %eax,(%esp)
 804a2b5:	e8 76 f2 ff ff       	call   8049530 <_ZN10EventMouse9setMouseYEi>
 804a2ba:	8b 45 08             	mov    0x8(%ebp),%eax
 804a2bd:	8d 55 e0             	lea    -0x20(%ebp),%edx
 804a2c0:	89 54 24 04          	mov    %edx,0x4(%esp)
 804a2c4:	89 04 24             	mov    %eax,(%esp)
 804a2c7:	e8 76 fa ff ff       	call   8049d42 <_ZN7Manager7onEventEP5Event>
 804a2cc:	8d 45 e0             	lea    -0x20(%ebp),%eax
 804a2cf:	89 04 24             	mov    %eax,(%esp)
 804a2d2:	e8 f5 f1 ff ff       	call   80494cc <_ZN10EventMouseD1Ev>
 804a2d7:	eb 3d                	jmp    804a316 <_ZN12InputManager6getKeyEv+0xe2>
 804a2d9:	8d 45 e0             	lea    -0x20(%ebp),%eax
 804a2dc:	89 04 24             	mov    %eax,(%esp)
 804a2df:	e8 a8 f0 ff ff       	call   804938c <_ZN13EventKeyboardC1Ev>
 804a2e4:	8b 45 f4             	mov    -0xc(%ebp),%eax
 804a2e7:	0f be c0             	movsbl %al,%eax
 804a2ea:	89 44 24 04          	mov    %eax,0x4(%esp)
 804a2ee:	8d 45 e0             	lea    -0x20(%ebp),%eax
 804a2f1:	89 04 24             	mov    %eax,(%esp)
 804a2f4:	e8 e3 f0 ff ff       	call   80493dc <_ZN13EventKeyboard6setKeyEc>
 804a2f9:	8b 45 08             	mov    0x8(%ebp),%eax
 804a2fc:	8d 55 e0             	lea    -0x20(%ebp),%edx
 804a2ff:	89 54 24 04          	mov    %edx,0x4(%esp)
 804a303:	89 04 24             	mov    %eax,(%esp)
 804a306:	e8 37 fa ff ff       	call   8049d42 <_ZN7Manager7onEventEP5Event>
 804a30b:	8d 45 e0             	lea    -0x20(%ebp),%eax
 804a30e:	89 04 24             	mov    %eax,(%esp)
 804a311:	e8 14 f1 ff ff       	call   804942a <_ZN13EventKeyboardD1Ev>
 804a316:	8b 45 f4             	mov    -0xc(%ebp),%eax
 804a319:	83 c4 44             	add    $0x44,%esp
 804a31c:	5b                   	pop    %ebx
 804a31d:	5d                   	pop    %ebp
 804a31e:	c3                   	ret    
 804a31f:	89 c3                	mov    %eax,%ebx
 804a321:	8d 45 e0             	lea    -0x20(%ebp),%eax
 804a324:	89 04 24             	mov    %eax,(%esp)
 804a327:	e8 a0 f1 ff ff       	call   80494cc <_ZN10EventMouseD1Ev>
 804a32c:	89 d8                	mov    %ebx,%eax
 804a32e:	89 04 24             	mov    %eax,(%esp)
 804a331:	e8 8a eb ff ff       	call   8048ec0 <_Unwind_Resume@plt>
 804a336:	89 c3                	mov    %eax,%ebx
 804a338:	8d 45 e0             	lea    -0x20(%ebp),%eax
 804a33b:	89 04 24             	mov    %eax,(%esp)
 804a33e:	e8 e7 f0 ff ff       	call   804942a <_ZN13EventKeyboardD1Ev>
 804a343:	89 d8                	mov    %ebx,%eax
 804a345:	89 04 24             	mov    %eax,(%esp)
 804a348:	e8 73 eb ff ff       	call   8048ec0 <_Unwind_Resume@plt>
 804a34d:	90                   	nop

0804a34e <_ZN12InputManager7isValidESs>:
 804a34e:	55                   	push   %ebp
 804a34f:	89 e5                	mov    %esp,%ebp
 804a351:	83 ec 18             	sub    $0x18,%esp
 804a354:	c7 44 24 04 e5 d8 04 	movl   $0x804d8e5,0x4(%esp)
 804a35b:	08 
 804a35c:	8b 45 0c             	mov    0xc(%ebp),%eax
 804a35f:	89 04 24             	mov    %eax,(%esp)
 804a362:	e8 39 00 00 00       	call   804a3a0 <_ZSteqIcSt11char_traitsIcESaIcEEbRKSbIT_T0_T1_EPKS3_>
 804a367:	84 c0                	test   %al,%al
 804a369:	75 17                	jne    804a382 <_ZN12InputManager7isValidESs+0x34>
 804a36b:	c7 44 24 04 ee d8 04 	movl   $0x804d8ee,0x4(%esp)
 804a372:	08 
 804a373:	8b 45 0c             	mov    0xc(%ebp),%eax
 804a376:	89 04 24             	mov    %eax,(%esp)
 804a379:	e8 22 00 00 00       	call   804a3a0 <_ZSteqIcSt11char_traitsIcESaIcEEbRKSbIT_T0_T1_EPKS3_>
 804a37e:	84 c0                	test   %al,%al
 804a380:	74 07                	je     804a389 <_ZN12InputManager7isValidESs+0x3b>
 804a382:	b8 01 00 00 00       	mov    $0x1,%eax
 804a387:	eb 05                	jmp    804a38e <_ZN12InputManager7isValidESs+0x40>
 804a389:	b8 00 00 00 00       	mov    $0x0,%eax
 804a38e:	84 c0                	test   %al,%al
 804a390:	74 07                	je     804a399 <_ZN12InputManager7isValidESs+0x4b>
 804a392:	b8 01 00 00 00       	mov    $0x1,%eax
 804a397:	eb 05                	jmp    804a39e <_ZN12InputManager7isValidESs+0x50>
 804a399:	b8 00 00 00 00       	mov    $0x0,%eax
 804a39e:	c9                   	leave  
 804a39f:	c3                   	ret    

0804a3a0 <_ZSteqIcSt11char_traitsIcESaIcEEbRKSbIT_T0_T1_EPKS3_>:
 804a3a0:	55                   	push   %ebp
 804a3a1:	89 e5                	mov    %esp,%ebp
 804a3a3:	83 ec 18             	sub    $0x18,%esp
 804a3a6:	8b 45 0c             	mov    0xc(%ebp),%eax
 804a3a9:	89 44 24 04          	mov    %eax,0x4(%esp)
 804a3ad:	8b 45 08             	mov    0x8(%ebp),%eax
 804a3b0:	89 04 24             	mov    %eax,(%esp)
 804a3b3:	e8 28 ea ff ff       	call   8048de0 <_ZNKSs7compareEPKc@plt>
 804a3b8:	85 c0                	test   %eax,%eax
 804a3ba:	0f 94 c0             	sete   %al
 804a3bd:	c9                   	leave  
 804a3be:	c3                   	ret    
 804a3bf:	90                   	nop

0804a3c0 <_ZN11GameManagerC1Ev>:
 804a3c0:	55                   	push   %ebp
 804a3c1:	89 e5                	mov    %esp,%ebp
 804a3c3:	83 ec 18             	sub    $0x18,%esp
 804a3c6:	8b 45 08             	mov    0x8(%ebp),%eax
 804a3c9:	89 04 24             	mov    %eax,(%esp)
 804a3cc:	e8 cb f4 ff ff       	call   804989c <_ZN7ManagerC1Ev>
 804a3d1:	8b 45 08             	mov    0x8(%ebp),%eax
 804a3d4:	c7 00 d0 d9 04 08    	movl   $0x804d9d0,(%eax)
 804a3da:	c9                   	leave  
 804a3db:	c3                   	ret    

0804a3dc <_ZN11GameManagerD1Ev>:
 804a3dc:	55                   	push   %ebp
 804a3dd:	89 e5                	mov    %esp,%ebp
 804a3df:	83 ec 18             	sub    $0x18,%esp
 804a3e2:	8b 45 08             	mov    0x8(%ebp),%eax
 804a3e5:	c7 00 d0 d9 04 08    	movl   $0x804d9d0,(%eax)
 804a3eb:	8b 45 08             	mov    0x8(%ebp),%eax
 804a3ee:	89 04 24             	mov    %eax,(%esp)
 804a3f1:	e8 16 f6 ff ff       	call   8049a0c <_ZN7ManagerD1Ev>
 804a3f6:	c9                   	leave  
 804a3f7:	c3                   	ret    

0804a3f8 <_ZN11GameManager11getInstanceEv>:
 804a3f8:	55                   	push   %ebp
 804a3f9:	89 e5                	mov    %esp,%ebp
 804a3fb:	56                   	push   %esi
 804a3fc:	53                   	push   %ebx
 804a3fd:	83 ec 10             	sub    $0x10,%esp
 804a400:	b8 80 f1 05 08       	mov    $0x805f180,%eax
 804a405:	0f b6 00             	movzbl (%eax),%eax
 804a408:	84 c0                	test   %al,%al
 804a40a:	75 4f                	jne    804a45b <_ZN11GameManager11getInstanceEv+0x63>
 804a40c:	c7 04 24 80 f1 05 08 	movl   $0x805f180,(%esp)
 804a413:	e8 58 e8 ff ff       	call   8048c70 <__cxa_guard_acquire@plt>
 804a418:	85 c0                	test   %eax,%eax
 804a41a:	0f 95 c0             	setne  %al
 804a41d:	84 c0                	test   %al,%al
 804a41f:	74 3a                	je     804a45b <_ZN11GameManager11getInstanceEv+0x63>
 804a421:	be 00 00 00 00       	mov    $0x0,%esi
 804a426:	c7 04 24 a0 f1 05 08 	movl   $0x805f1a0,(%esp)
 804a42d:	e8 8e ff ff ff       	call   804a3c0 <_ZN11GameManagerC1Ev>
 804a432:	c7 04 24 80 f1 05 08 	movl   $0x805f180,(%esp)
 804a439:	e8 82 e9 ff ff       	call   8048dc0 <__cxa_guard_release@plt>
 804a43e:	b8 dc a3 04 08       	mov    $0x804a3dc,%eax
 804a443:	c7 44 24 08 c4 20 05 	movl   $0x80520c4,0x8(%esp)
 804a44a:	08 
 804a44b:	c7 44 24 04 a0 f1 05 	movl   $0x805f1a0,0x4(%esp)
 804a452:	08 
 804a453:	89 04 24             	mov    %eax,(%esp)
 804a456:	e8 d5 e7 ff ff       	call   8048c30 <__cxa_atexit@plt>
 804a45b:	b8 a0 f1 05 08       	mov    $0x805f1a0,%eax
 804a460:	83 c4 10             	add    $0x10,%esp
 804a463:	5b                   	pop    %ebx
 804a464:	5e                   	pop    %esi
 804a465:	5d                   	pop    %ebp
 804a466:	c3                   	ret    
 804a467:	89 c3                	mov    %eax,%ebx
 804a469:	89 f0                	mov    %esi,%eax
 804a46b:	84 c0                	test   %al,%al
 804a46d:	75 0c                	jne    804a47b <_ZN11GameManager11getInstanceEv+0x83>
 804a46f:	c7 04 24 80 f1 05 08 	movl   $0x805f180,(%esp)
 804a476:	e8 15 ea ff ff       	call   8048e90 <__cxa_guard_abort@plt>
 804a47b:	89 d8                	mov    %ebx,%eax
 804a47d:	89 04 24             	mov    %eax,(%esp)
 804a480:	e8 3b ea ff ff       	call   8048ec0 <_Unwind_Resume@plt>
 804a485:	90                   	nop

0804a486 <_ZN11GameManager3runEv>:
 804a486:	55                   	push   %ebp
 804a487:	89 e5                	mov    %esp,%ebp
 804a489:	56                   	push   %esi
 804a48a:	53                   	push   %ebx
 804a48b:	83 c4 80             	add    $0xffffff80,%esp
 804a48e:	e8 25 14 00 00       	call   804b8b8 <_ZN10LogManager11getInstanceEv>
 804a493:	89 45 d8             	mov    %eax,-0x28(%ebp)
 804a496:	8b 45 08             	mov    0x8(%ebp),%eax
 804a499:	c7 80 e0 cf 00 00 00 	movl   $0x0,0xcfe0(%eax)
 804a4a0:	00 00 00 
 804a4a3:	c7 04 24 18 00 00 00 	movl   $0x18,(%esp)
 804a4aa:	e8 71 e9 ff ff       	call   8048e20 <_Znwj@plt>
 804a4af:	89 c3                	mov    %eax,%ebx
 804a4b1:	89 1c 24             	mov    %ebx,(%esp)
 804a4b4:	e8 83 f3 ff ff       	call   804983c <_ZN5ClockC1Ev>
 804a4b9:	89 5d dc             	mov    %ebx,-0x24(%ebp)
 804a4bc:	e8 a7 06 00 00       	call   804ab68 <_ZN12WorldManager11getInstanceEv>
 804a4c1:	89 45 e0             	mov    %eax,-0x20(%ebp)
 804a4c4:	e8 5f fc ff ff       	call   804a128 <_ZN12InputManager11getInstanceEv>
 804a4c9:	89 45 e4             	mov    %eax,-0x1c(%ebp)
 804a4cc:	e8 41 03 00 00       	call   804a812 <_ZN15GraphicsManager11getInstanceEv>
 804a4d1:	89 45 e8             	mov    %eax,-0x18(%ebp)
 804a4d4:	8b 45 e0             	mov    -0x20(%ebp),%eax
 804a4d7:	05 dc cf 00 00       	add    $0xcfdc,%eax
 804a4dc:	89 45 ec             	mov    %eax,-0x14(%ebp)
 804a4df:	c7 04 24 08 00 00 00 	movl   $0x8,(%esp)
 804a4e6:	e8 35 e9 ff ff       	call   8048e20 <_Znwj@plt>
 804a4eb:	89 c3                	mov    %eax,%ebx
 804a4ed:	8b 45 ec             	mov    -0x14(%ebp),%eax
 804a4f0:	89 44 24 04          	mov    %eax,0x4(%esp)
 804a4f4:	89 1c 24             	mov    %ebx,(%esp)
 804a4f7:	e8 64 25 00 00       	call   804ca60 <_ZN18ObjectListIteratorC1EPK10ObjectList>
 804a4fc:	89 5d f0             	mov    %ebx,-0x10(%ebp)
 804a4ff:	8b 45 f0             	mov    -0x10(%ebp),%eax
 804a502:	89 04 24             	mov    %eax,(%esp)
 804a505:	e8 7c 25 00 00       	call   804ca86 <_ZN18ObjectListIterator5firstEv>
 804a50a:	eb 61                	jmp    804a56d <_ZN11GameManager3runEv+0xe7>
 804a50c:	8b 45 f0             	mov    -0x10(%ebp),%eax
 804a50f:	89 04 24             	mov    %eax,(%esp)
 804a512:	e8 cf 25 00 00       	call   804cae6 <_ZN18ObjectListIterator11currentItemEv>
 804a517:	89 04 24             	mov    %eax,(%esp)
 804a51a:	e8 5b 19 00 00       	call   804be7a <_ZN6Object9getSpriteEv>
 804a51f:	0f be d8             	movsbl %al,%ebx
 804a522:	8b 45 f0             	mov    -0x10(%ebp),%eax
 804a525:	89 04 24             	mov    %eax,(%esp)
 804a528:	e8 b9 25 00 00       	call   804cae6 <_ZN18ObjectListIterator11currentItemEv>
 804a52d:	89 c2                	mov    %eax,%edx
 804a52f:	8d 45 d0             	lea    -0x30(%ebp),%eax
 804a532:	89 54 24 04          	mov    %edx,0x4(%esp)
 804a536:	89 04 24             	mov    %eax,(%esp)
 804a539:	e8 68 19 00 00       	call   804bea6 <_ZN6Object11getPositionEv>
 804a53e:	83 ec 04             	sub    $0x4,%esp
 804a541:	89 5c 24 08          	mov    %ebx,0x8(%esp)
 804a545:	8d 45 d0             	lea    -0x30(%ebp),%eax
 804a548:	89 44 24 04          	mov    %eax,0x4(%esp)
 804a54c:	8b 45 e8             	mov    -0x18(%ebp),%eax
 804a54f:	89 04 24             	mov    %eax,(%esp)
 804a552:	e8 bd 03 00 00       	call   804a914 <_ZN15GraphicsManager9writeCharE8Positionc>
 804a557:	8d 45 d0             	lea    -0x30(%ebp),%eax
 804a55a:	89 04 24             	mov    %eax,(%esp)
 804a55d:	e8 52 15 00 00       	call   804bab4 <_ZN8PositionD1Ev>
 804a562:	8b 45 f0             	mov    -0x10(%ebp),%eax
 804a565:	89 04 24             	mov    %eax,(%esp)
 804a568:	e8 29 25 00 00       	call   804ca96 <_ZN18ObjectListIterator4nextEv>
 804a56d:	8b 45 f0             	mov    -0x10(%ebp),%eax
 804a570:	89 04 24             	mov    %eax,(%esp)
 804a573:	e8 32 25 00 00       	call   804caaa <_ZN18ObjectListIterator6isDoneEv>
 804a578:	83 f0 01             	xor    $0x1,%eax
 804a57b:	84 c0                	test   %al,%al
 804a57d:	75 8d                	jne    804a50c <_ZN11GameManager3runEv+0x86>
 804a57f:	e9 3a 01 00 00       	jmp    804a6be <_ZN11GameManager3runEv+0x238>
 804a584:	8b 45 08             	mov    0x8(%ebp),%eax
 804a587:	8b 80 e0 cf 00 00    	mov    0xcfe0(%eax),%eax
 804a58d:	89 44 24 08          	mov    %eax,0x8(%esp)
 804a591:	c7 44 24 04 28 d9 04 	movl   $0x804d928,0x4(%esp)
 804a598:	08 
 804a599:	8b 45 d8             	mov    -0x28(%ebp),%eax
 804a59c:	89 04 24             	mov    %eax,(%esp)
 804a59f:	e8 2e 14 00 00       	call   804b9d2 <_ZN10LogManager8writeLogEPKcz>
 804a5a4:	8b 45 dc             	mov    -0x24(%ebp),%eax
 804a5a7:	89 04 24             	mov    %eax,(%esp)
 804a5aa:	e8 99 f2 ff ff       	call   8049848 <_ZN5Clock11initialTimeEv>
 804a5af:	8b 45 dc             	mov    -0x24(%ebp),%eax
 804a5b2:	8b 40 04             	mov    0x4(%eax),%eax
 804a5b5:	89 44 24 08          	mov    %eax,0x8(%esp)
 804a5b9:	c7 44 24 04 5c d9 04 	movl   $0x804d95c,0x4(%esp)
 804a5c0:	08 
 804a5c1:	8b 45 d8             	mov    -0x28(%ebp),%eax
 804a5c4:	89 04 24             	mov    %eax,(%esp)
 804a5c7:	e8 06 14 00 00       	call   804b9d2 <_ZN10LogManager8writeLogEPKcz>
 804a5cc:	8d 45 94             	lea    -0x6c(%ebp),%eax
 804a5cf:	89 04 24             	mov    %eax,(%esp)
 804a5d2:	e8 6d ef ff ff       	call   8049544 <_ZN14EventCollisionC1Ev>
 804a5d7:	8b 45 08             	mov    0x8(%ebp),%eax
 804a5da:	8d 55 94             	lea    -0x6c(%ebp),%edx
 804a5dd:	89 54 24 04          	mov    %edx,0x4(%esp)
 804a5e1:	89 04 24             	mov    %eax,(%esp)
 804a5e4:	e8 59 f7 ff ff       	call   8049d42 <_ZN7Manager7onEventEP5Event>
 804a5e9:	8b 45 e4             	mov    -0x1c(%ebp),%eax
 804a5ec:	89 04 24             	mov    %eax,(%esp)
 804a5ef:	e8 40 fc ff ff       	call   804a234 <_ZN12InputManager6getKeyEv>
 804a5f4:	8d 45 ac             	lea    -0x54(%ebp),%eax
 804a5f7:	89 04 24             	mov    %eax,(%esp)
 804a5fa:	e8 7d ee ff ff       	call   804947c <_ZN10EventMouseC1Ev>
 804a5ff:	8b 45 08             	mov    0x8(%ebp),%eax
 804a602:	8d 55 ac             	lea    -0x54(%ebp),%edx
 804a605:	89 54 24 04          	mov    %edx,0x4(%esp)
 804a609:	89 04 24             	mov    %eax,(%esp)
 804a60c:	e8 31 f7 ff ff       	call   8049d42 <_ZN7Manager7onEventEP5Event>
 804a611:	8d 45 c0             	lea    -0x40(%ebp),%eax
 804a614:	89 04 24             	mov    %eax,(%esp)
 804a617:	e8 80 ec ff ff       	call   804929c <_ZN9EventStepC1Ev>
 804a61c:	8b 45 08             	mov    0x8(%ebp),%eax
 804a61f:	8d 55 c0             	lea    -0x40(%ebp),%edx
 804a622:	89 54 24 04          	mov    %edx,0x4(%esp)
 804a626:	89 04 24             	mov    %eax,(%esp)
 804a629:	e8 14 f7 ff ff       	call   8049d42 <_ZN7Manager7onEventEP5Event>
 804a62e:	8b 45 e0             	mov    -0x20(%ebp),%eax
 804a631:	89 04 24             	mov    %eax,(%esp)
 804a634:	e8 87 0a 00 00       	call   804b0c0 <_ZN12WorldManager6updateEv>
 804a639:	8b 45 dc             	mov    -0x24(%ebp),%eax
 804a63c:	89 04 24             	mov    %eax,(%esp)
 804a63f:	e8 26 f2 ff ff       	call   804986a <_ZN5Clock9calcDeltaEv>
 804a644:	89 45 f4             	mov    %eax,-0xc(%ebp)
 804a647:	c7 44 24 0c e4 0c 00 	movl   $0xce4,0xc(%esp)
 804a64e:	00 
 804a64f:	8b 45 f4             	mov    -0xc(%ebp),%eax
 804a652:	89 44 24 08          	mov    %eax,0x8(%esp)
 804a656:	c7 44 24 04 70 d9 04 	movl   $0x804d970,0x4(%esp)
 804a65d:	08 
 804a65e:	8b 45 d8             	mov    -0x28(%ebp),%eax
 804a661:	89 04 24             	mov    %eax,(%esp)
 804a664:	e8 69 13 00 00       	call   804b9d2 <_ZN10LogManager8writeLogEPKcz>
 804a669:	c7 04 24 10 27 00 00 	movl   $0x2710,(%esp)
 804a670:	e8 ab e6 ff ff       	call   8048d20 <usleep@plt>
 804a675:	8b 45 08             	mov    0x8(%ebp),%eax
 804a678:	8b 80 e0 cf 00 00    	mov    0xcfe0(%eax),%eax
 804a67e:	8d 50 01             	lea    0x1(%eax),%edx
 804a681:	8b 45 08             	mov    0x8(%ebp),%eax
 804a684:	89 90 e0 cf 00 00    	mov    %edx,0xcfe0(%eax)
 804a68a:	c7 44 24 04 98 d9 04 	movl   $0x804d998,0x4(%esp)
 804a691:	08 
 804a692:	8b 45 d8             	mov    -0x28(%ebp),%eax
 804a695:	89 04 24             	mov    %eax,(%esp)
 804a698:	e8 35 13 00 00       	call   804b9d2 <_ZN10LogManager8writeLogEPKcz>
 804a69d:	8d 45 c0             	lea    -0x40(%ebp),%eax
 804a6a0:	89 04 24             	mov    %eax,(%esp)
 804a6a3:	e8 64 ec ff ff       	call   804930c <_ZN9EventStepD1Ev>
 804a6a8:	8d 45 ac             	lea    -0x54(%ebp),%eax
 804a6ab:	89 04 24             	mov    %eax,(%esp)
 804a6ae:	e8 19 ee ff ff       	call   80494cc <_ZN10EventMouseD1Ev>
 804a6b3:	8d 45 94             	lea    -0x6c(%ebp),%eax
 804a6b6:	89 04 24             	mov    %eax,(%esp)
 804a6b9:	e8 10 f0 ff ff       	call   80496ce <_ZN14EventCollisionD1Ev>
 804a6be:	8b 45 08             	mov    0x8(%ebp),%eax
 804a6c1:	0f b6 80 d9 cf 00 00 	movzbl 0xcfd9(%eax),%eax
 804a6c8:	83 f0 01             	xor    $0x1,%eax
 804a6cb:	84 c0                	test   %al,%al
 804a6cd:	0f 85 b1 fe ff ff    	jne    804a584 <_ZN11GameManager3runEv+0xfe>
 804a6d3:	eb 74                	jmp    804a749 <_ZN11GameManager3runEv+0x2c3>
 804a6d5:	89 c6                	mov    %eax,%esi
 804a6d7:	89 1c 24             	mov    %ebx,(%esp)
 804a6da:	e8 c1 e5 ff ff       	call   8048ca0 <_ZdlPv@plt>
 804a6df:	89 f0                	mov    %esi,%eax
 804a6e1:	89 04 24             	mov    %eax,(%esp)
 804a6e4:	e8 d7 e7 ff ff       	call   8048ec0 <_Unwind_Resume@plt>
 804a6e9:	89 c6                	mov    %eax,%esi
 804a6eb:	89 1c 24             	mov    %ebx,(%esp)
 804a6ee:	e8 ad e5 ff ff       	call   8048ca0 <_ZdlPv@plt>
 804a6f3:	89 f0                	mov    %esi,%eax
 804a6f5:	89 04 24             	mov    %eax,(%esp)
 804a6f8:	e8 c3 e7 ff ff       	call   8048ec0 <_Unwind_Resume@plt>
 804a6fd:	89 c3                	mov    %eax,%ebx
 804a6ff:	8d 45 d0             	lea    -0x30(%ebp),%eax
 804a702:	89 04 24             	mov    %eax,(%esp)
 804a705:	e8 aa 13 00 00       	call   804bab4 <_ZN8PositionD1Ev>
 804a70a:	89 d8                	mov    %ebx,%eax
 804a70c:	89 04 24             	mov    %eax,(%esp)
 804a70f:	e8 ac e7 ff ff       	call   8048ec0 <_Unwind_Resume@plt>
 804a714:	89 c3                	mov    %eax,%ebx
 804a716:	8d 45 c0             	lea    -0x40(%ebp),%eax
 804a719:	89 04 24             	mov    %eax,(%esp)
 804a71c:	e8 eb eb ff ff       	call   804930c <_ZN9EventStepD1Ev>
 804a721:	eb 02                	jmp    804a725 <_ZN11GameManager3runEv+0x29f>
 804a723:	89 c3                	mov    %eax,%ebx
 804a725:	8d 45 ac             	lea    -0x54(%ebp),%eax
 804a728:	89 04 24             	mov    %eax,(%esp)
 804a72b:	e8 9c ed ff ff       	call   80494cc <_ZN10EventMouseD1Ev>
 804a730:	eb 02                	jmp    804a734 <_ZN11GameManager3runEv+0x2ae>
 804a732:	89 c3                	mov    %eax,%ebx
 804a734:	8d 45 94             	lea    -0x6c(%ebp),%eax
 804a737:	89 04 24             	mov    %eax,(%esp)
 804a73a:	e8 8f ef ff ff       	call   80496ce <_ZN14EventCollisionD1Ev>
 804a73f:	89 d8                	mov    %ebx,%eax
 804a741:	89 04 24             	mov    %eax,(%esp)
 804a744:	e8 77 e7 ff ff       	call   8048ec0 <_Unwind_Resume@plt>
 804a749:	8d 65 f8             	lea    -0x8(%ebp),%esp
 804a74c:	5b                   	pop    %ebx
 804a74d:	5e                   	pop    %esi
 804a74e:	5d                   	pop    %ebp
 804a74f:	c3                   	ret    

0804a750 <_ZN11GameManager7startUpEv>:
 804a750:	55                   	push   %ebp
 804a751:	89 e5                	mov    %esp,%ebp
 804a753:	8b 45 08             	mov    0x8(%ebp),%eax
 804a756:	c6 80 d8 cf 00 00 01 	movb   $0x1,0xcfd8(%eax)
 804a75d:	b8 00 00 00 00       	mov    $0x0,%eax
 804a762:	5d                   	pop    %ebp
 804a763:	c3                   	ret    

0804a764 <_ZN11GameManager8shutDownEv>:
 804a764:	55                   	push   %ebp
 804a765:	89 e5                	mov    %esp,%ebp
 804a767:	83 ec 18             	sub    $0x18,%esp
 804a76a:	c7 04 24 01 00 00 00 	movl   $0x1,(%esp)
 804a771:	e8 6a e7 ff ff       	call   8048ee0 <exit@plt>

0804a776 <_ZN11GameManager7isValidESs>:
 804a776:	55                   	push   %ebp
 804a777:	89 e5                	mov    %esp,%ebp
 804a779:	83 ec 18             	sub    $0x18,%esp
 804a77c:	c7 44 24 04 c2 d9 04 	movl   $0x804d9c2,0x4(%esp)
 804a783:	08 
 804a784:	8b 45 0c             	mov    0xc(%ebp),%eax
 804a787:	89 04 24             	mov    %eax,(%esp)
 804a78a:	e8 11 fc ff ff       	call   804a3a0 <_ZSteqIcSt11char_traitsIcESaIcEEbRKSbIT_T0_T1_EPKS3_>
 804a78f:	84 c0                	test   %al,%al
 804a791:	74 07                	je     804a79a <_ZN11GameManager7isValidESs+0x24>
 804a793:	b8 01 00 00 00       	mov    $0x1,%eax
 804a798:	eb 05                	jmp    804a79f <_ZN11GameManager7isValidESs+0x29>
 804a79a:	b8 00 00 00 00       	mov    $0x0,%eax
 804a79f:	c9                   	leave  
 804a7a0:	c3                   	ret    
 804a7a1:	90                   	nop
 804a7a2:	90                   	nop
 804a7a3:	90                   	nop

0804a7a4 <_ZN15GraphicsManagerC1Ev>:
 804a7a4:	55                   	push   %ebp
 804a7a5:	89 e5                	mov    %esp,%ebp
 804a7a7:	83 ec 18             	sub    $0x18,%esp
 804a7aa:	8b 45 08             	mov    0x8(%ebp),%eax
 804a7ad:	89 04 24             	mov    %eax,(%esp)
 804a7b0:	e8 e7 f0 ff ff       	call   804989c <_ZN7ManagerC1Ev>
 804a7b5:	8b 45 08             	mov    0x8(%ebp),%eax
 804a7b8:	c7 00 00 da 04 08    	movl   $0x804da00,(%eax)
 804a7be:	c9                   	leave  
 804a7bf:	c3                   	ret    

0804a7c0 <_ZN15GraphicsManagerD1Ev>:
 804a7c0:	55                   	push   %ebp
 804a7c1:	89 e5                	mov    %esp,%ebp
 804a7c3:	83 ec 18             	sub    $0x18,%esp
 804a7c6:	8b 45 08             	mov    0x8(%ebp),%eax
 804a7c9:	c7 00 00 da 04 08    	movl   $0x804da00,(%eax)
 804a7cf:	8b 45 08             	mov    0x8(%ebp),%eax
 804a7d2:	89 04 24             	mov    %eax,(%esp)
 804a7d5:	e8 32 f2 ff ff       	call   8049a0c <_ZN7ManagerD1Ev>
 804a7da:	b8 00 00 00 00       	mov    $0x0,%eax
 804a7df:	83 e0 01             	and    $0x1,%eax
 804a7e2:	84 c0                	test   %al,%al
 804a7e4:	74 0b                	je     804a7f1 <_ZN15GraphicsManagerD1Ev+0x31>
 804a7e6:	8b 45 08             	mov    0x8(%ebp),%eax
 804a7e9:	89 04 24             	mov    %eax,(%esp)
 804a7ec:	e8 af e4 ff ff       	call   8048ca0 <_ZdlPv@plt>
 804a7f1:	c9                   	leave  
 804a7f2:	c3                   	ret    
 804a7f3:	90                   	nop

0804a7f4 <_ZN15GraphicsManagerD0Ev>:
 804a7f4:	55                   	push   %ebp
 804a7f5:	89 e5                	mov    %esp,%ebp
 804a7f7:	83 ec 18             	sub    $0x18,%esp
 804a7fa:	8b 45 08             	mov    0x8(%ebp),%eax
 804a7fd:	89 04 24             	mov    %eax,(%esp)
 804a800:	e8 bb ff ff ff       	call   804a7c0 <_ZN15GraphicsManagerD1Ev>
 804a805:	8b 45 08             	mov    0x8(%ebp),%eax
 804a808:	89 04 24             	mov    %eax,(%esp)
 804a80b:	e8 90 e4 ff ff       	call   8048ca0 <_ZdlPv@plt>
 804a810:	c9                   	leave  
 804a811:	c3                   	ret    

0804a812 <_ZN15GraphicsManager11getInstanceEv>:
 804a812:	55                   	push   %ebp
 804a813:	89 e5                	mov    %esp,%ebp
 804a815:	56                   	push   %esi
 804a816:	53                   	push   %ebx
 804a817:	83 ec 10             	sub    $0x10,%esp
 804a81a:	b8 a0 c1 06 08       	mov    $0x806c1a0,%eax
 804a81f:	0f b6 00             	movzbl (%eax),%eax
 804a822:	84 c0                	test   %al,%al
 804a824:	75 4f                	jne    804a875 <_ZN15GraphicsManager11getInstanceEv+0x63>
 804a826:	c7 04 24 a0 c1 06 08 	movl   $0x806c1a0,(%esp)
 804a82d:	e8 3e e4 ff ff       	call   8048c70 <__cxa_guard_acquire@plt>
 804a832:	85 c0                	test   %eax,%eax
 804a834:	0f 95 c0             	setne  %al
 804a837:	84 c0                	test   %al,%al
 804a839:	74 3a                	je     804a875 <_ZN15GraphicsManager11getInstanceEv+0x63>
 804a83b:	be 00 00 00 00       	mov    $0x0,%esi
 804a840:	c7 04 24 c0 c1 06 08 	movl   $0x806c1c0,(%esp)
 804a847:	e8 58 ff ff ff       	call   804a7a4 <_ZN15GraphicsManagerC1Ev>
 804a84c:	c7 04 24 a0 c1 06 08 	movl   $0x806c1a0,(%esp)
 804a853:	e8 68 e5 ff ff       	call   8048dc0 <__cxa_guard_release@plt>
 804a858:	b8 c0 a7 04 08       	mov    $0x804a7c0,%eax
 804a85d:	c7 44 24 08 c4 20 05 	movl   $0x80520c4,0x8(%esp)
 804a864:	08 
 804a865:	c7 44 24 04 c0 c1 06 	movl   $0x806c1c0,0x4(%esp)
 804a86c:	08 
 804a86d:	89 04 24             	mov    %eax,(%esp)
 804a870:	e8 bb e3 ff ff       	call   8048c30 <__cxa_atexit@plt>
 804a875:	b8 c0 c1 06 08       	mov    $0x806c1c0,%eax
 804a87a:	83 c4 10             	add    $0x10,%esp
 804a87d:	5b                   	pop    %ebx
 804a87e:	5e                   	pop    %esi
 804a87f:	5d                   	pop    %ebp
 804a880:	c3                   	ret    
 804a881:	89 c3                	mov    %eax,%ebx
 804a883:	89 f0                	mov    %esi,%eax
 804a885:	84 c0                	test   %al,%al
 804a887:	75 0c                	jne    804a895 <_ZN15GraphicsManager11getInstanceEv+0x83>
 804a889:	c7 04 24 a0 c1 06 08 	movl   $0x806c1a0,(%esp)
 804a890:	e8 fb e5 ff ff       	call   8048e90 <__cxa_guard_abort@plt>
 804a895:	89 d8                	mov    %ebx,%eax
 804a897:	89 04 24             	mov    %eax,(%esp)
 804a89a:	e8 21 e6 ff ff       	call   8048ec0 <_Unwind_Resume@plt>
 804a89f:	90                   	nop

0804a8a0 <_ZN15GraphicsManager7startUpEv>:
 804a8a0:	55                   	push   %ebp
 804a8a1:	89 e5                	mov    %esp,%ebp
 804a8a3:	83 ec 18             	sub    $0x18,%esp
 804a8a6:	e8 65 e4 ff ff       	call   8048d10 <initscr@plt>
 804a8ab:	8b 45 08             	mov    0x8(%ebp),%eax
 804a8ae:	89 04 24             	mov    %eax,(%esp)
 804a8b1:	e8 fc 00 00 00       	call   804a9b2 <_ZN15GraphicsManager9getXBoundEv>
 804a8b6:	8b 55 08             	mov    0x8(%ebp),%edx
 804a8b9:	89 82 dc cf 00 00    	mov    %eax,0xcfdc(%edx)
 804a8bf:	8b 45 08             	mov    0x8(%ebp),%eax
 804a8c2:	89 04 24             	mov    %eax,(%esp)
 804a8c5:	e8 42 01 00 00       	call   804aa0c <_ZN15GraphicsManager9getYBoundEv>
 804a8ca:	8b 55 08             	mov    0x8(%ebp),%edx
 804a8cd:	89 82 e0 cf 00 00    	mov    %eax,0xcfe0(%edx)
 804a8d3:	c7 04 24 00 00 00 00 	movl   $0x0,(%esp)
 804a8da:	e8 91 e5 ff ff       	call   8048e70 <curs_set@plt>
 804a8df:	e8 ec e5 ff ff       	call   8048ed0 <noecho@plt>
 804a8e4:	8b 45 08             	mov    0x8(%ebp),%eax
 804a8e7:	c6 80 d8 cf 00 00 01 	movb   $0x1,0xcfd8(%eax)
 804a8ee:	b8 00 00 00 00       	mov    $0x0,%eax
 804a8f3:	c9                   	leave  
 804a8f4:	c3                   	ret    
 804a8f5:	90                   	nop

0804a8f6 <_ZN15GraphicsManager8shutDownEv>:
 804a8f6:	55                   	push   %ebp
 804a8f7:	89 e5                	mov    %esp,%ebp
 804a8f9:	83 ec 18             	sub    $0x18,%esp
 804a8fc:	c7 04 24 01 00 00 00 	movl   $0x1,(%esp)
 804a903:	e8 68 e5 ff ff       	call   8048e70 <curs_set@plt>
 804a908:	e8 a3 e3 ff ff       	call   8048cb0 <endwin@plt>
 804a90d:	b8 00 00 00 00       	mov    $0x0,%eax
 804a912:	c9                   	leave  
 804a913:	c3                   	ret    

0804a914 <_ZN15GraphicsManager9writeCharE8Positionc>:
 804a914:	55                   	push   %ebp
 804a915:	89 e5                	mov    %esp,%ebp
 804a917:	83 ec 38             	sub    $0x38,%esp
 804a91a:	8b 45 10             	mov    0x10(%ebp),%eax
 804a91d:	88 45 e4             	mov    %al,-0x1c(%ebp)
 804a920:	8b 45 0c             	mov    0xc(%ebp),%eax
 804a923:	89 04 24             	mov    %eax,(%esp)
 804a926:	e8 73 11 00 00       	call   804ba9e <_ZN8Position4getXEv>
 804a92b:	89 45 f0             	mov    %eax,-0x10(%ebp)
 804a92e:	8b 45 0c             	mov    0xc(%ebp),%eax
 804a931:	89 04 24             	mov    %eax,(%esp)
 804a934:	e8 6f 11 00 00       	call   804baa8 <_ZN8Position4getYEv>
 804a939:	89 45 f4             	mov    %eax,-0xc(%ebp)
 804a93c:	8b 45 f0             	mov    -0x10(%ebp),%eax
 804a93f:	89 44 24 04          	mov    %eax,0x4(%esp)
 804a943:	8b 45 f4             	mov    -0xc(%ebp),%eax
 804a946:	89 04 24             	mov    %eax,(%esp)
 804a949:	e8 c2 e4 ff ff       	call   8048e10 <move@plt>
 804a94e:	0f be 55 e4          	movsbl -0x1c(%ebp),%edx
 804a952:	a1 e0 20 05 08       	mov    0x80520e0,%eax
 804a957:	89 54 24 04          	mov    %edx,0x4(%esp)
 804a95b:	89 04 24             	mov    %eax,(%esp)
 804a95e:	e8 ed e2 ff ff       	call   8048c50 <waddch@plt>
 804a963:	e8 28 e4 ff ff       	call   8048d90 <refresh@plt>
 804a968:	c9                   	leave  
 804a969:	c3                   	ret    

0804a96a <_ZN15GraphicsManager10deleteCharE8Position>:
 804a96a:	55                   	push   %ebp
 804a96b:	89 e5                	mov    %esp,%ebp
 804a96d:	83 ec 28             	sub    $0x28,%esp
 804a970:	8b 45 0c             	mov    0xc(%ebp),%eax
 804a973:	89 04 24             	mov    %eax,(%esp)
 804a976:	e8 23 11 00 00       	call   804ba9e <_ZN8Position4getXEv>
 804a97b:	89 45 f0             	mov    %eax,-0x10(%ebp)
 804a97e:	8b 45 0c             	mov    0xc(%ebp),%eax
 804a981:	89 04 24             	mov    %eax,(%esp)
 804a984:	e8 1f 11 00 00       	call   804baa8 <_ZN8Position4getYEv>
 804a989:	89 45 f4             	mov    %eax,-0xc(%ebp)
 804a98c:	8b 45 f0             	mov    -0x10(%ebp),%eax
 804a98f:	89 44 24 04          	mov    %eax,0x4(%esp)
 804a993:	8b 45 f4             	mov    -0xc(%ebp),%eax
 804a996:	89 04 24             	mov    %eax,(%esp)
 804a999:	e8 72 e4 ff ff       	call   8048e10 <move@plt>
 804a99e:	a1 e0 20 05 08       	mov    0x80520e0,%eax
 804a9a3:	89 04 24             	mov    %eax,(%esp)
 804a9a6:	e8 a5 e3 ff ff       	call   8048d50 <wdelch@plt>
 804a9ab:	e8 e0 e3 ff ff       	call   8048d90 <refresh@plt>
 804a9b0:	c9                   	leave  
 804a9b1:	c3                   	ret    

0804a9b2 <_ZN15GraphicsManager9getXBoundEv>:
 804a9b2:	55                   	push   %ebp
 804a9b3:	89 e5                	mov    %esp,%ebp
 804a9b5:	a1 e0 20 05 08       	mov    0x80520e0,%eax
 804a9ba:	85 c0                	test   %eax,%eax
 804a9bc:	74 0f                	je     804a9cd <_ZN15GraphicsManager9getXBoundEv+0x1b>
 804a9be:	a1 e0 20 05 08       	mov    0x80520e0,%eax
 804a9c3:	0f b7 40 04          	movzwl 0x4(%eax),%eax
 804a9c7:	98                   	cwtl   
 804a9c8:	83 c0 01             	add    $0x1,%eax
 804a9cb:	eb 05                	jmp    804a9d2 <_ZN15GraphicsManager9getXBoundEv+0x20>
 804a9cd:	b8 ff ff ff ff       	mov    $0xffffffff,%eax
 804a9d2:	8b 55 08             	mov    0x8(%ebp),%edx
 804a9d5:	89 82 e0 cf 00 00    	mov    %eax,0xcfe0(%edx)
 804a9db:	a1 e0 20 05 08       	mov    0x80520e0,%eax
 804a9e0:	85 c0                	test   %eax,%eax
 804a9e2:	74 0f                	je     804a9f3 <_ZN15GraphicsManager9getXBoundEv+0x41>
 804a9e4:	a1 e0 20 05 08       	mov    0x80520e0,%eax
 804a9e9:	0f b7 40 06          	movzwl 0x6(%eax),%eax
 804a9ed:	98                   	cwtl   
 804a9ee:	83 c0 01             	add    $0x1,%eax
 804a9f1:	eb 05                	jmp    804a9f8 <_ZN15GraphicsManager9getXBoundEv+0x46>
 804a9f3:	b8 ff ff ff ff       	mov    $0xffffffff,%eax
 804a9f8:	8b 55 08             	mov    0x8(%ebp),%edx
 804a9fb:	89 82 dc cf 00 00    	mov    %eax,0xcfdc(%edx)
 804aa01:	8b 45 08             	mov    0x8(%ebp),%eax
 804aa04:	8b 80 dc cf 00 00    	mov    0xcfdc(%eax),%eax
 804aa0a:	5d                   	pop    %ebp
 804aa0b:	c3                   	ret    

0804aa0c <_ZN15GraphicsManager9getYBoundEv>:
 804aa0c:	55                   	push   %ebp
 804aa0d:	89 e5                	mov    %esp,%ebp
 804aa0f:	a1 e0 20 05 08       	mov    0x80520e0,%eax
 804aa14:	85 c0                	test   %eax,%eax
 804aa16:	74 0f                	je     804aa27 <_ZN15GraphicsManager9getYBoundEv+0x1b>
 804aa18:	a1 e0 20 05 08       	mov    0x80520e0,%eax
 804aa1d:	0f b7 40 04          	movzwl 0x4(%eax),%eax
 804aa21:	98                   	cwtl   
 804aa22:	83 c0 01             	add    $0x1,%eax
 804aa25:	eb 05                	jmp    804aa2c <_ZN15GraphicsManager9getYBoundEv+0x20>
 804aa27:	b8 ff ff ff ff       	mov    $0xffffffff,%eax
 804aa2c:	8b 55 08             	mov    0x8(%ebp),%edx
 804aa2f:	89 82 e0 cf 00 00    	mov    %eax,0xcfe0(%edx)
 804aa35:	a1 e0 20 05 08       	mov    0x80520e0,%eax
 804aa3a:	85 c0                	test   %eax,%eax
 804aa3c:	74 0f                	je     804aa4d <_ZN15GraphicsManager9getYBoundEv+0x41>
 804aa3e:	a1 e0 20 05 08       	mov    0x80520e0,%eax
 804aa43:	0f b7 40 06          	movzwl 0x6(%eax),%eax
 804aa47:	98                   	cwtl   
 804aa48:	83 c0 01             	add    $0x1,%eax
 804aa4b:	eb 05                	jmp    804aa52 <_ZN15GraphicsManager9getYBoundEv+0x46>
 804aa4d:	b8 ff ff ff ff       	mov    $0xffffffff,%eax
 804aa52:	8b 55 08             	mov    0x8(%ebp),%edx
 804aa55:	89 82 dc cf 00 00    	mov    %eax,0xcfdc(%edx)
 804aa5b:	8b 45 08             	mov    0x8(%ebp),%eax
 804aa5e:	8b 80 e0 cf 00 00    	mov    0xcfe0(%eax),%eax
 804aa64:	5d                   	pop    %ebp
 804aa65:	c3                   	ret    

0804aa66 <_ZN15GraphicsManager7isValidESs>:
 804aa66:	55                   	push   %ebp
 804aa67:	89 e5                	mov    %esp,%ebp
 804aa69:	b8 00 00 00 00       	mov    $0x0,%eax
 804aa6e:	5d                   	pop    %ebp
 804aa6f:	c3                   	ret    

0804aa70 <_ZN12WorldManagerC1Ev>:
 804aa70:	55                   	push   %ebp
 804aa71:	89 e5                	mov    %esp,%ebp
 804aa73:	53                   	push   %ebx
 804aa74:	83 ec 14             	sub    $0x14,%esp
 804aa77:	8b 45 08             	mov    0x8(%ebp),%eax
 804aa7a:	89 04 24             	mov    %eax,(%esp)
 804aa7d:	e8 1a ee ff ff       	call   804989c <_ZN7ManagerC1Ev>
 804aa82:	8b 45 08             	mov    0x8(%ebp),%eax
 804aa85:	c7 00 28 db 04 08    	movl   $0x804db28,(%eax)
 804aa8b:	8b 45 08             	mov    0x8(%ebp),%eax
 804aa8e:	05 dc cf 00 00       	add    $0xcfdc,%eax
 804aa93:	89 04 24             	mov    %eax,(%esp)
 804aa96:	e8 a5 1c 00 00       	call   804c740 <_ZN10ObjectListC1Ev>
 804aa9b:	8b 45 08             	mov    0x8(%ebp),%eax
 804aa9e:	05 ec d1 00 00       	add    $0xd1ec,%eax
 804aaa3:	89 04 24             	mov    %eax,(%esp)
 804aaa6:	e8 95 1c 00 00       	call   804c740 <_ZN10ObjectListC1Ev>
 804aaab:	eb 2b                	jmp    804aad8 <_ZN12WorldManagerC1Ev+0x68>
 804aaad:	89 c3                	mov    %eax,%ebx
 804aaaf:	8b 45 08             	mov    0x8(%ebp),%eax
 804aab2:	05 dc cf 00 00       	add    $0xcfdc,%eax
 804aab7:	89 04 24             	mov    %eax,(%esp)
 804aaba:	e8 d3 1c 00 00       	call   804c792 <_ZN10ObjectListD1Ev>
 804aabf:	eb 02                	jmp    804aac3 <_ZN12WorldManagerC1Ev+0x53>
 804aac1:	89 c3                	mov    %eax,%ebx
 804aac3:	8b 45 08             	mov    0x8(%ebp),%eax
 804aac6:	89 04 24             	mov    %eax,(%esp)
 804aac9:	e8 3e ef ff ff       	call   8049a0c <_ZN7ManagerD1Ev>
 804aace:	89 d8                	mov    %ebx,%eax
 804aad0:	89 04 24             	mov    %eax,(%esp)
 804aad3:	e8 e8 e3 ff ff       	call   8048ec0 <_Unwind_Resume@plt>
 804aad8:	83 c4 14             	add    $0x14,%esp
 804aadb:	5b                   	pop    %ebx
 804aadc:	5d                   	pop    %ebp
 804aadd:	c3                   	ret    

0804aade <_ZN12WorldManagerD1Ev>:
 804aade:	55                   	push   %ebp
 804aadf:	89 e5                	mov    %esp,%ebp
 804aae1:	53                   	push   %ebx
 804aae2:	83 ec 14             	sub    $0x14,%esp
 804aae5:	8b 45 08             	mov    0x8(%ebp),%eax
 804aae8:	c7 00 28 db 04 08    	movl   $0x804db28,(%eax)
 804aaee:	8b 45 08             	mov    0x8(%ebp),%eax
 804aaf1:	05 ec d1 00 00       	add    $0xd1ec,%eax
 804aaf6:	89 04 24             	mov    %eax,(%esp)
 804aaf9:	e8 94 1c 00 00       	call   804c792 <_ZN10ObjectListD1Ev>
 804aafe:	8b 45 08             	mov    0x8(%ebp),%eax
 804ab01:	05 dc cf 00 00       	add    $0xcfdc,%eax
 804ab06:	89 04 24             	mov    %eax,(%esp)
 804ab09:	e8 84 1c 00 00       	call   804c792 <_ZN10ObjectListD1Ev>
 804ab0e:	8b 45 08             	mov    0x8(%ebp),%eax
 804ab11:	89 04 24             	mov    %eax,(%esp)
 804ab14:	e8 f3 ee ff ff       	call   8049a0c <_ZN7ManagerD1Ev>
 804ab19:	83 c4 14             	add    $0x14,%esp
 804ab1c:	5b                   	pop    %ebx
 804ab1d:	5d                   	pop    %ebp
 804ab1e:	c3                   	ret    
 804ab1f:	89 c3                	mov    %eax,%ebx
 804ab21:	8b 45 08             	mov    0x8(%ebp),%eax
 804ab24:	05 dc cf 00 00       	add    $0xcfdc,%eax
 804ab29:	89 04 24             	mov    %eax,(%esp)
 804ab2c:	e8 61 1c 00 00       	call   804c792 <_ZN10ObjectListD1Ev>
 804ab31:	eb 02                	jmp    804ab35 <_ZN12WorldManagerD1Ev+0x57>
 804ab33:	89 c3                	mov    %eax,%ebx
 804ab35:	8b 45 08             	mov    0x8(%ebp),%eax
 804ab38:	89 04 24             	mov    %eax,(%esp)
 804ab3b:	e8 cc ee ff ff       	call   8049a0c <_ZN7ManagerD1Ev>
 804ab40:	89 d8                	mov    %ebx,%eax
 804ab42:	89 04 24             	mov    %eax,(%esp)
 804ab45:	e8 76 e3 ff ff       	call   8048ec0 <_Unwind_Resume@plt>

0804ab4a <_ZN12WorldManager7startUpEv>:
 804ab4a:	55                   	push   %ebp
 804ab4b:	89 e5                	mov    %esp,%ebp
 804ab4d:	8b 45 08             	mov    0x8(%ebp),%eax
 804ab50:	c6 80 d8 cf 00 00 01 	movb   $0x1,0xcfd8(%eax)
 804ab57:	b8 00 00 00 00       	mov    $0x0,%eax
 804ab5c:	5d                   	pop    %ebp
 804ab5d:	c3                   	ret    

0804ab5e <_ZN12WorldManager8shutDownEv>:
 804ab5e:	55                   	push   %ebp
 804ab5f:	89 e5                	mov    %esp,%ebp
 804ab61:	b8 00 00 00 00       	mov    $0x0,%eax
 804ab66:	5d                   	pop    %ebp
 804ab67:	c3                   	ret    

0804ab68 <_ZN12WorldManager11getInstanceEv>:
 804ab68:	55                   	push   %ebp
 804ab69:	89 e5                	mov    %esp,%ebp
 804ab6b:	56                   	push   %esi
 804ab6c:	53                   	push   %ebx
 804ab6d:	83 ec 10             	sub    $0x10,%esp
 804ab70:	b8 c0 91 07 08       	mov    $0x80791c0,%eax
 804ab75:	0f b6 00             	movzbl (%eax),%eax
 804ab78:	84 c0                	test   %al,%al
 804ab7a:	75 4f                	jne    804abcb <_ZN12WorldManager11getInstanceEv+0x63>
 804ab7c:	c7 04 24 c0 91 07 08 	movl   $0x80791c0,(%esp)
 804ab83:	e8 e8 e0 ff ff       	call   8048c70 <__cxa_guard_acquire@plt>
 804ab88:	85 c0                	test   %eax,%eax
 804ab8a:	0f 95 c0             	setne  %al
 804ab8d:	84 c0                	test   %al,%al
 804ab8f:	74 3a                	je     804abcb <_ZN12WorldManager11getInstanceEv+0x63>
 804ab91:	be 00 00 00 00       	mov    $0x0,%esi
 804ab96:	c7 04 24 e0 91 07 08 	movl   $0x80791e0,(%esp)
 804ab9d:	e8 ce fe ff ff       	call   804aa70 <_ZN12WorldManagerC1Ev>
 804aba2:	c7 04 24 c0 91 07 08 	movl   $0x80791c0,(%esp)
 804aba9:	e8 12 e2 ff ff       	call   8048dc0 <__cxa_guard_release@plt>
 804abae:	b8 de aa 04 08       	mov    $0x804aade,%eax
 804abb3:	c7 44 24 08 c4 20 05 	movl   $0x80520c4,0x8(%esp)
 804abba:	08 
 804abbb:	c7 44 24 04 e0 91 07 	movl   $0x80791e0,0x4(%esp)
 804abc2:	08 
 804abc3:	89 04 24             	mov    %eax,(%esp)
 804abc6:	e8 65 e0 ff ff       	call   8048c30 <__cxa_atexit@plt>
 804abcb:	b8 e0 91 07 08       	mov    $0x80791e0,%eax
 804abd0:	83 c4 10             	add    $0x10,%esp
 804abd3:	5b                   	pop    %ebx
 804abd4:	5e                   	pop    %esi
 804abd5:	5d                   	pop    %ebp
 804abd6:	c3                   	ret    
 804abd7:	89 c3                	mov    %eax,%ebx
 804abd9:	89 f0                	mov    %esi,%eax
 804abdb:	84 c0                	test   %al,%al
 804abdd:	75 0c                	jne    804abeb <_ZN12WorldManager11getInstanceEv+0x83>
 804abdf:	c7 04 24 c0 91 07 08 	movl   $0x80791c0,(%esp)
 804abe6:	e8 a5 e2 ff ff       	call   8048e90 <__cxa_guard_abort@plt>
 804abeb:	89 d8                	mov    %ebx,%eax
 804abed:	89 04 24             	mov    %eax,(%esp)
 804abf0:	e8 cb e2 ff ff       	call   8048ec0 <_Unwind_Resume@plt>
 804abf5:	90                   	nop

0804abf6 <_ZN12WorldManager16insertGameObjectEP6Object>:
 804abf6:	55                   	push   %ebp
 804abf7:	89 e5                	mov    %esp,%ebp
 804abf9:	83 ec 18             	sub    $0x18,%esp
 804abfc:	8b 45 08             	mov    0x8(%ebp),%eax
 804abff:	8d 90 dc cf 00 00    	lea    0xcfdc(%eax),%edx
 804ac05:	8b 45 0c             	mov    0xc(%ebp),%eax
 804ac08:	89 44 24 04          	mov    %eax,0x4(%esp)
 804ac0c:	89 14 24             	mov    %edx,(%esp)
 804ac0f:	e8 f8 1b 00 00       	call   804c80c <_ZN10ObjectList6insertEP6Object>
 804ac14:	b8 00 00 00 00       	mov    $0x0,%eax
 804ac19:	c9                   	leave  
 804ac1a:	c3                   	ret    
 804ac1b:	90                   	nop

0804ac1c <_ZN12WorldManager13markForDeleteEP6Object>:
 804ac1c:	55                   	push   %ebp
 804ac1d:	89 e5                	mov    %esp,%ebp
 804ac1f:	83 ec 18             	sub    $0x18,%esp
 804ac22:	8b 45 08             	mov    0x8(%ebp),%eax
 804ac25:	8d 90 ec d1 00 00    	lea    0xd1ec(%eax),%edx
 804ac2b:	8b 45 0c             	mov    0xc(%ebp),%eax
 804ac2e:	89 44 24 04          	mov    %eax,0x4(%esp)
 804ac32:	89 14 24             	mov    %edx,(%esp)
 804ac35:	e8 d2 1b 00 00       	call   804c80c <_ZN10ObjectList6insertEP6Object>
 804ac3a:	b8 00 00 00 00       	mov    $0x0,%eax
 804ac3f:	c9                   	leave  
 804ac40:	c3                   	ret    
 804ac41:	90                   	nop

0804ac42 <_ZN12WorldManager16removeGameObjectEP6Object>:
 804ac42:	55                   	push   %ebp
 804ac43:	89 e5                	mov    %esp,%ebp
 804ac45:	83 ec 18             	sub    $0x18,%esp
 804ac48:	8b 45 08             	mov    0x8(%ebp),%eax
 804ac4b:	8d 90 dc cf 00 00    	lea    0xcfdc(%eax),%edx
 804ac51:	8b 45 0c             	mov    0xc(%ebp),%eax
 804ac54:	89 44 24 04          	mov    %eax,0x4(%esp)
 804ac58:	89 14 24             	mov    %edx,(%esp)
 804ac5b:	e8 1c 1c 00 00       	call   804c87c <_ZN10ObjectList6removeEP6Object>
 804ac60:	b8 00 00 00 00       	mov    $0x0,%eax
 804ac65:	c9                   	leave  
 804ac66:	c3                   	ret    
 804ac67:	90                   	nop

0804ac68 <_ZN12WorldManager17getAllGameObjectsEv>:
 804ac68:	55                   	push   %ebp
 804ac69:	89 e5                	mov    %esp,%ebp
 804ac6b:	83 ec 18             	sub    $0x18,%esp
 804ac6e:	8b 45 0c             	mov    0xc(%ebp),%eax
 804ac71:	05 dc cf 00 00       	add    $0xcfdc,%eax
 804ac76:	89 44 24 04          	mov    %eax,0x4(%esp)
 804ac7a:	8b 45 08             	mov    0x8(%ebp),%eax
 804ac7d:	89 04 24             	mov    %eax,(%esp)
 804ac80:	e8 0b 0b 00 00       	call   804b790 <_ZN10ObjectListC1ERKS_>
 804ac85:	8b 45 08             	mov    0x8(%ebp),%eax
 804ac88:	c9                   	leave  
 804ac89:	c2 04 00             	ret    $0x4

0804ac8c <_ZN12WorldManager18positionsIntersectE8PositionS0_>:
 804ac8c:	55                   	push   %ebp
 804ac8d:	89 e5                	mov    %esp,%ebp
 804ac8f:	53                   	push   %ebx
 804ac90:	83 ec 14             	sub    $0x14,%esp
 804ac93:	8b 45 0c             	mov    0xc(%ebp),%eax
 804ac96:	89 04 24             	mov    %eax,(%esp)
 804ac99:	e8 00 0e 00 00       	call   804ba9e <_ZN8Position4getXEv>
 804ac9e:	89 c3                	mov    %eax,%ebx
 804aca0:	8b 45 10             	mov    0x10(%ebp),%eax
 804aca3:	89 04 24             	mov    %eax,(%esp)
 804aca6:	e8 f3 0d 00 00       	call   804ba9e <_ZN8Position4getXEv>
 804acab:	39 c3                	cmp    %eax,%ebx
 804acad:	75 23                	jne    804acd2 <_ZN12WorldManager18positionsIntersectE8PositionS0_+0x46>
 804acaf:	8b 45 0c             	mov    0xc(%ebp),%eax
 804acb2:	89 04 24             	mov    %eax,(%esp)
 804acb5:	e8 ee 0d 00 00       	call   804baa8 <_ZN8Position4getYEv>
 804acba:	89 c3                	mov    %eax,%ebx
 804acbc:	8b 45 10             	mov    0x10(%ebp),%eax
 804acbf:	89 04 24             	mov    %eax,(%esp)
 804acc2:	e8 e1 0d 00 00       	call   804baa8 <_ZN8Position4getYEv>
 804acc7:	39 c3                	cmp    %eax,%ebx
 804acc9:	75 07                	jne    804acd2 <_ZN12WorldManager18positionsIntersectE8PositionS0_+0x46>
 804accb:	b8 01 00 00 00       	mov    $0x1,%eax
 804acd0:	eb 05                	jmp    804acd7 <_ZN12WorldManager18positionsIntersectE8PositionS0_+0x4b>
 804acd2:	b8 00 00 00 00       	mov    $0x0,%eax
 804acd7:	84 c0                	test   %al,%al
 804acd9:	74 07                	je     804ace2 <_ZN12WorldManager18positionsIntersectE8PositionS0_+0x56>
 804acdb:	b8 01 00 00 00       	mov    $0x1,%eax
 804ace0:	eb 05                	jmp    804ace7 <_ZN12WorldManager18positionsIntersectE8PositionS0_+0x5b>
 804ace2:	b8 00 00 00 00       	mov    $0x0,%eax
 804ace7:	83 c4 14             	add    $0x14,%esp
 804acea:	5b                   	pop    %ebx
 804aceb:	5d                   	pop    %ebp
 804acec:	c3                   	ret    
 804aced:	90                   	nop

0804acee <_ZN12WorldManager11isCollisionEP6Object8Position>:
 804acee:	55                   	push   %ebp
 804acef:	89 e5                	mov    %esp,%ebp
 804acf1:	57                   	push   %edi
 804acf2:	56                   	push   %esi
 804acf3:	53                   	push   %ebx
 804acf4:	83 ec 3c             	sub    $0x3c,%esp
 804acf7:	8b 45 08             	mov    0x8(%ebp),%eax
 804acfa:	89 04 24             	mov    %eax,(%esp)
 804acfd:	e8 3e 1a 00 00       	call   804c740 <_ZN10ObjectListC1Ev>
 804ad02:	8b 45 0c             	mov    0xc(%ebp),%eax
 804ad05:	05 dc cf 00 00       	add    $0xcfdc,%eax
 804ad0a:	89 45 dc             	mov    %eax,-0x24(%ebp)
 804ad0d:	c7 04 24 08 00 00 00 	movl   $0x8,(%esp)
 804ad14:	e8 07 e1 ff ff       	call   8048e20 <_Znwj@plt>
 804ad19:	89 c3                	mov    %eax,%ebx
 804ad1b:	8b 45 dc             	mov    -0x24(%ebp),%eax
 804ad1e:	89 44 24 04          	mov    %eax,0x4(%esp)
 804ad22:	89 1c 24             	mov    %ebx,(%esp)
 804ad25:	e8 36 1d 00 00       	call   804ca60 <_ZN18ObjectListIteratorC1EPK10ObjectList>
 804ad2a:	89 5d e0             	mov    %ebx,-0x20(%ebp)
 804ad2d:	e9 c9 00 00 00       	jmp    804adfb <_ZN12WorldManager11isCollisionEP6Object8Position+0x10d>
 804ad32:	8b 45 e0             	mov    -0x20(%ebp),%eax
 804ad35:	89 04 24             	mov    %eax,(%esp)
 804ad38:	e8 a9 1d 00 00       	call   804cae6 <_ZN18ObjectListIterator11currentItemEv>
 804ad3d:	89 45 e4             	mov    %eax,-0x1c(%ebp)
 804ad40:	8b 45 e4             	mov    -0x1c(%ebp),%eax
 804ad43:	3b 45 10             	cmp    0x10(%ebp),%eax
 804ad46:	0f 84 a4 00 00 00    	je     804adf0 <_ZN12WorldManager11isCollisionEP6Object8Position+0x102>
 804ad4c:	bb 00 00 00 00       	mov    $0x0,%ebx
 804ad51:	8b 45 14             	mov    0x14(%ebp),%eax
 804ad54:	8b 10                	mov    (%eax),%edx
 804ad56:	89 55 d4             	mov    %edx,-0x2c(%ebp)
 804ad59:	8b 40 04             	mov    0x4(%eax),%eax
 804ad5c:	89 45 d8             	mov    %eax,-0x28(%ebp)
 804ad5f:	be 01 00 00 00       	mov    $0x1,%esi
 804ad64:	8d 45 cc             	lea    -0x34(%ebp),%eax
 804ad67:	8b 55 e4             	mov    -0x1c(%ebp),%edx
 804ad6a:	89 54 24 04          	mov    %edx,0x4(%esp)
 804ad6e:	89 04 24             	mov    %eax,(%esp)
 804ad71:	e8 30 11 00 00       	call   804bea6 <_ZN6Object11getPositionEv>
 804ad76:	83 ec 04             	sub    $0x4,%esp
 804ad79:	bb 01 00 00 00       	mov    $0x1,%ebx
 804ad7e:	8d 45 d4             	lea    -0x2c(%ebp),%eax
 804ad81:	89 44 24 08          	mov    %eax,0x8(%esp)
 804ad85:	8d 45 cc             	lea    -0x34(%ebp),%eax
 804ad88:	89 44 24 04          	mov    %eax,0x4(%esp)
 804ad8c:	8b 45 0c             	mov    0xc(%ebp),%eax
 804ad8f:	89 04 24             	mov    %eax,(%esp)
 804ad92:	e8 f5 fe ff ff       	call   804ac8c <_ZN12WorldManager18positionsIntersectE8PositionS0_>
 804ad97:	84 c0                	test   %al,%al
 804ad99:	74 16                	je     804adb1 <_ZN12WorldManager11isCollisionEP6Object8Position+0xc3>
 804ad9b:	8b 45 e4             	mov    -0x1c(%ebp),%eax
 804ad9e:	89 04 24             	mov    %eax,(%esp)
 804ada1:	e8 8e 10 00 00       	call   804be34 <_ZN6Object7isSolidEv>
 804ada6:	84 c0                	test   %al,%al
 804ada8:	74 07                	je     804adb1 <_ZN12WorldManager11isCollisionEP6Object8Position+0xc3>
 804adaa:	b8 01 00 00 00       	mov    $0x1,%eax
 804adaf:	eb 05                	jmp    804adb6 <_ZN12WorldManager11isCollisionEP6Object8Position+0xc8>
 804adb1:	b8 00 00 00 00       	mov    $0x0,%eax
 804adb6:	89 c7                	mov    %eax,%edi
 804adb8:	84 db                	test   %bl,%bl
 804adba:	74 0b                	je     804adc7 <_ZN12WorldManager11isCollisionEP6Object8Position+0xd9>
 804adbc:	8d 45 cc             	lea    -0x34(%ebp),%eax
 804adbf:	89 04 24             	mov    %eax,(%esp)
 804adc2:	e8 ed 0c 00 00       	call   804bab4 <_ZN8PositionD1Ev>
 804adc7:	89 f0                	mov    %esi,%eax
 804adc9:	84 c0                	test   %al,%al
 804adcb:	74 0b                	je     804add8 <_ZN12WorldManager11isCollisionEP6Object8Position+0xea>
 804adcd:	8d 45 d4             	lea    -0x2c(%ebp),%eax
 804add0:	89 04 24             	mov    %eax,(%esp)
 804add3:	e8 dc 0c 00 00       	call   804bab4 <_ZN8PositionD1Ev>
 804add8:	89 f8                	mov    %edi,%eax
 804adda:	84 c0                	test   %al,%al
 804addc:	74 12                	je     804adf0 <_ZN12WorldManager11isCollisionEP6Object8Position+0x102>
 804adde:	8b 45 e4             	mov    -0x1c(%ebp),%eax
 804ade1:	89 44 24 04          	mov    %eax,0x4(%esp)
 804ade5:	8b 45 08             	mov    0x8(%ebp),%eax
 804ade8:	89 04 24             	mov    %eax,(%esp)
 804adeb:	e8 1c 1a 00 00       	call   804c80c <_ZN10ObjectList6insertEP6Object>
 804adf0:	8b 45 e0             	mov    -0x20(%ebp),%eax
 804adf3:	89 04 24             	mov    %eax,(%esp)
 804adf6:	e8 9b 1c 00 00       	call   804ca96 <_ZN18ObjectListIterator4nextEv>
 804adfb:	8b 45 e0             	mov    -0x20(%ebp),%eax
 804adfe:	89 04 24             	mov    %eax,(%esp)
 804ae01:	e8 a4 1c 00 00       	call   804caaa <_ZN18ObjectListIterator6isDoneEv>
 804ae06:	83 f0 01             	xor    $0x1,%eax
 804ae09:	84 c0                	test   %al,%al
 804ae0b:	0f 85 21 ff ff ff    	jne    804ad32 <_ZN12WorldManager11isCollisionEP6Object8Position+0x44>
 804ae11:	eb 4f                	jmp    804ae62 <_ZN12WorldManager11isCollisionEP6Object8Position+0x174>
 804ae13:	89 c6                	mov    %eax,%esi
 804ae15:	89 1c 24             	mov    %ebx,(%esp)
 804ae18:	e8 83 de ff ff       	call   8048ca0 <_ZdlPv@plt>
 804ae1d:	89 f3                	mov    %esi,%ebx
 804ae1f:	eb 2c                	jmp    804ae4d <_ZN12WorldManager11isCollisionEP6Object8Position+0x15f>
 804ae21:	89 c7                	mov    %eax,%edi
 804ae23:	84 db                	test   %bl,%bl
 804ae25:	74 0b                	je     804ae32 <_ZN12WorldManager11isCollisionEP6Object8Position+0x144>
 804ae27:	8d 45 cc             	lea    -0x34(%ebp),%eax
 804ae2a:	89 04 24             	mov    %eax,(%esp)
 804ae2d:	e8 82 0c 00 00       	call   804bab4 <_ZN8PositionD1Ev>
 804ae32:	89 fb                	mov    %edi,%ebx
 804ae34:	eb 02                	jmp    804ae38 <_ZN12WorldManager11isCollisionEP6Object8Position+0x14a>
 804ae36:	89 c3                	mov    %eax,%ebx
 804ae38:	89 f0                	mov    %esi,%eax
 804ae3a:	84 c0                	test   %al,%al
 804ae3c:	74 0b                	je     804ae49 <_ZN12WorldManager11isCollisionEP6Object8Position+0x15b>
 804ae3e:	8d 45 d4             	lea    -0x2c(%ebp),%eax
 804ae41:	89 04 24             	mov    %eax,(%esp)
 804ae44:	e8 6b 0c 00 00       	call   804bab4 <_ZN8PositionD1Ev>
 804ae49:	eb 02                	jmp    804ae4d <_ZN12WorldManager11isCollisionEP6Object8Position+0x15f>
 804ae4b:	89 c3                	mov    %eax,%ebx
 804ae4d:	8b 45 08             	mov    0x8(%ebp),%eax
 804ae50:	89 04 24             	mov    %eax,(%esp)
 804ae53:	e8 3a 19 00 00       	call   804c792 <_ZN10ObjectListD1Ev>
 804ae58:	89 d8                	mov    %ebx,%eax
 804ae5a:	89 04 24             	mov    %eax,(%esp)
 804ae5d:	e8 5e e0 ff ff       	call   8048ec0 <_Unwind_Resume@plt>
 804ae62:	8b 45 08             	mov    0x8(%ebp),%eax
 804ae65:	8d 65 f4             	lea    -0xc(%ebp),%esp
 804ae68:	5b                   	pop    %ebx
 804ae69:	5e                   	pop    %esi
 804ae6a:	5f                   	pop    %edi
 804ae6b:	5d                   	pop    %ebp
 804ae6c:	c2 04 00             	ret    $0x4
 804ae6f:	90                   	nop

0804ae70 <_ZN12WorldManager10moveObjectEP6Object8Position>:
 804ae70:	55                   	push   %ebp
 804ae71:	89 e5                	mov    %esp,%ebp
 804ae73:	56                   	push   %esi
 804ae74:	53                   	push   %ebx
 804ae75:	81 ec 60 02 00 00    	sub    $0x260,%esp
 804ae7b:	8b 45 0c             	mov    0xc(%ebp),%eax
 804ae7e:	89 04 24             	mov    %eax,(%esp)
 804ae81:	e8 ae 0f 00 00       	call   804be34 <_ZN6Object7isSolidEv>
 804ae86:	84 c0                	test   %al,%al
 804ae88:	0f 84 84 01 00 00    	je     804b012 <_ZN12WorldManager10moveObjectEP6Object8Position+0x1a2>
 804ae8e:	8b 45 10             	mov    0x10(%ebp),%eax
 804ae91:	8b 10                	mov    (%eax),%edx
 804ae93:	89 55 d0             	mov    %edx,-0x30(%ebp)
 804ae96:	8b 40 04             	mov    0x4(%eax),%eax
 804ae99:	89 45 d4             	mov    %eax,-0x2c(%ebp)
 804ae9c:	8d 85 a8 fd ff ff    	lea    -0x258(%ebp),%eax
 804aea2:	8d 55 d0             	lea    -0x30(%ebp),%edx
 804aea5:	89 54 24 0c          	mov    %edx,0xc(%esp)
 804aea9:	8b 55 0c             	mov    0xc(%ebp),%edx
 804aeac:	89 54 24 08          	mov    %edx,0x8(%esp)
 804aeb0:	8b 55 08             	mov    0x8(%ebp),%edx
 804aeb3:	89 54 24 04          	mov    %edx,0x4(%esp)
 804aeb7:	89 04 24             	mov    %eax,(%esp)
 804aeba:	e8 2f fe ff ff       	call   804acee <_ZN12WorldManager11isCollisionEP6Object8Position>
 804aebf:	83 ec 04             	sub    $0x4,%esp
 804aec2:	8d 45 d0             	lea    -0x30(%ebp),%eax
 804aec5:	89 04 24             	mov    %eax,(%esp)
 804aec8:	e8 e7 0b 00 00       	call   804bab4 <_ZN8PositionD1Ev>
 804aecd:	8d 85 a8 fd ff ff    	lea    -0x258(%ebp),%eax
 804aed3:	89 45 e8             	mov    %eax,-0x18(%ebp)
 804aed6:	c7 04 24 08 00 00 00 	movl   $0x8,(%esp)
 804aedd:	e8 3e df ff ff       	call   8048e20 <_Znwj@plt>
 804aee2:	89 c3                	mov    %eax,%ebx
 804aee4:	8b 45 e8             	mov    -0x18(%ebp),%eax
 804aee7:	89 44 24 04          	mov    %eax,0x4(%esp)
 804aeeb:	89 1c 24             	mov    %ebx,(%esp)
 804aeee:	e8 6d 1b 00 00       	call   804ca60 <_ZN18ObjectListIteratorC1EPK10ObjectList>
 804aef3:	89 5d ec             	mov    %ebx,-0x14(%ebp)
 804aef6:	e9 e9 00 00 00       	jmp    804afe4 <_ZN12WorldManager10moveObjectEP6Object8Position+0x174>
 804aefb:	8b 45 ec             	mov    -0x14(%ebp),%eax
 804aefe:	89 04 24             	mov    %eax,(%esp)
 804af01:	e8 e0 1b 00 00       	call   804cae6 <_ZN18ObjectListIterator11currentItemEv>
 804af06:	89 45 f0             	mov    %eax,-0x10(%ebp)
 804af09:	8b 45 10             	mov    0x10(%ebp),%eax
 804af0c:	8b 10                	mov    (%eax),%edx
 804af0e:	89 55 d8             	mov    %edx,-0x28(%ebp)
 804af11:	8b 40 04             	mov    0x4(%eax),%eax
 804af14:	89 45 dc             	mov    %eax,-0x24(%ebp)
 804af17:	8d 45 d8             	lea    -0x28(%ebp),%eax
 804af1a:	89 44 24 0c          	mov    %eax,0xc(%esp)
 804af1e:	8b 45 f0             	mov    -0x10(%ebp),%eax
 804af21:	89 44 24 08          	mov    %eax,0x8(%esp)
 804af25:	8b 45 0c             	mov    0xc(%ebp),%eax
 804af28:	89 44 24 04          	mov    %eax,0x4(%esp)
 804af2c:	8d 45 b8             	lea    -0x48(%ebp),%eax
 804af2f:	89 04 24             	mov    %eax,(%esp)
 804af32:	e8 c7 e6 ff ff       	call   80495fe <_ZN14EventCollisionC1EP6ObjectS1_8Position>
 804af37:	8d 45 d8             	lea    -0x28(%ebp),%eax
 804af3a:	89 04 24             	mov    %eax,(%esp)
 804af3d:	e8 72 0b 00 00       	call   804bab4 <_ZN8PositionD1Ev>
 804af42:	8b 45 0c             	mov    0xc(%ebp),%eax
 804af45:	8b 00                	mov    (%eax),%eax
 804af47:	83 c0 08             	add    $0x8,%eax
 804af4a:	8b 10                	mov    (%eax),%edx
 804af4c:	8d 45 b8             	lea    -0x48(%ebp),%eax
 804af4f:	89 44 24 04          	mov    %eax,0x4(%esp)
 804af53:	8b 45 0c             	mov    0xc(%ebp),%eax
 804af56:	89 04 24             	mov    %eax,(%esp)
 804af59:	ff d2                	call   *%edx
 804af5b:	8b 45 f0             	mov    -0x10(%ebp),%eax
 804af5e:	8b 00                	mov    (%eax),%eax
 804af60:	83 c0 08             	add    $0x8,%eax
 804af63:	8b 10                	mov    (%eax),%edx
 804af65:	8d 45 b8             	lea    -0x48(%ebp),%eax
 804af68:	89 44 24 04          	mov    %eax,0x4(%esp)
 804af6c:	8b 45 f0             	mov    -0x10(%ebp),%eax
 804af6f:	89 04 24             	mov    %eax,(%esp)
 804af72:	ff d2                	call   *%edx
 804af74:	8b 45 0c             	mov    0xc(%ebp),%eax
 804af77:	89 04 24             	mov    %eax,(%esp)
 804af7a:	e8 bf 0e 00 00       	call   804be3e <_ZN6Object12getSolidnessEv>
 804af7f:	85 c0                	test   %eax,%eax
 804af81:	75 16                	jne    804af99 <_ZN12WorldManager10moveObjectEP6Object8Position+0x129>
 804af83:	8b 45 f0             	mov    -0x10(%ebp),%eax
 804af86:	89 04 24             	mov    %eax,(%esp)
 804af89:	e8 b0 0e 00 00       	call   804be3e <_ZN6Object12getSolidnessEv>
 804af8e:	85 c0                	test   %eax,%eax
 804af90:	75 07                	jne    804af99 <_ZN12WorldManager10moveObjectEP6Object8Position+0x129>
 804af92:	b8 01 00 00 00       	mov    $0x1,%eax
 804af97:	eb 05                	jmp    804af9e <_ZN12WorldManager10moveObjectEP6Object8Position+0x12e>
 804af99:	b8 00 00 00 00       	mov    $0x0,%eax
 804af9e:	84 c0                	test   %al,%al
 804afa0:	74 04                	je     804afa6 <_ZN12WorldManager10moveObjectEP6Object8Position+0x136>
 804afa2:	c6 45 f7 00          	movb   $0x0,-0x9(%ebp)
 804afa6:	8b 45 ec             	mov    -0x14(%ebp),%eax
 804afa9:	89 04 24             	mov    %eax,(%esp)
 804afac:	e8 e5 1a 00 00       	call   804ca96 <_ZN18ObjectListIterator4nextEv>
 804afb1:	0f b6 45 f7          	movzbl -0x9(%ebp),%eax
 804afb5:	83 f0 01             	xor    $0x1,%eax
 804afb8:	84 c0                	test   %al,%al
 804afba:	74 0c                	je     804afc8 <_ZN12WorldManager10moveObjectEP6Object8Position+0x158>
 804afbc:	be ff ff ff ff       	mov    $0xffffffff,%esi
 804afc1:	bb 00 00 00 00       	mov    $0x0,%ebx
 804afc6:	eb 05                	jmp    804afcd <_ZN12WorldManager10moveObjectEP6Object8Position+0x15d>
 804afc8:	bb 01 00 00 00       	mov    $0x1,%ebx
 804afcd:	8d 45 b8             	lea    -0x48(%ebp),%eax
 804afd0:	89 04 24             	mov    %eax,(%esp)
 804afd3:	e8 f6 e6 ff ff       	call   80496ce <_ZN14EventCollisionD1Ev>
 804afd8:	83 fb 01             	cmp    $0x1,%ebx
 804afdb:	74 07                	je     804afe4 <_ZN12WorldManager10moveObjectEP6Object8Position+0x174>
 804afdd:	bb 00 00 00 00       	mov    $0x0,%ebx
 804afe2:	eb 1b                	jmp    804afff <_ZN12WorldManager10moveObjectEP6Object8Position+0x18f>
 804afe4:	8b 45 ec             	mov    -0x14(%ebp),%eax
 804afe7:	89 04 24             	mov    %eax,(%esp)
 804afea:	e8 bb 1a 00 00       	call   804caaa <_ZN18ObjectListIterator6isDoneEv>
 804afef:	83 f0 01             	xor    $0x1,%eax
 804aff2:	84 c0                	test   %al,%al
 804aff4:	0f 85 01 ff ff ff    	jne    804aefb <_ZN12WorldManager10moveObjectEP6Object8Position+0x8b>
 804affa:	bb 01 00 00 00       	mov    $0x1,%ebx
 804afff:	8d 85 a8 fd ff ff    	lea    -0x258(%ebp),%eax
 804b005:	89 04 24             	mov    %eax,(%esp)
 804b008:	e8 85 17 00 00       	call   804c792 <_ZN10ObjectListD1Ev>
 804b00d:	83 fb 01             	cmp    $0x1,%ebx
 804b010:	75 30                	jne    804b042 <_ZN12WorldManager10moveObjectEP6Object8Position+0x1d2>
 804b012:	8b 45 10             	mov    0x10(%ebp),%eax
 804b015:	8b 10                	mov    (%eax),%edx
 804b017:	89 55 e0             	mov    %edx,-0x20(%ebp)
 804b01a:	8b 40 04             	mov    0x4(%eax),%eax
 804b01d:	89 45 e4             	mov    %eax,-0x1c(%ebp)
 804b020:	8d 45 e0             	lea    -0x20(%ebp),%eax
 804b023:	89 44 24 04          	mov    %eax,0x4(%esp)
 804b027:	8b 45 0c             	mov    0xc(%ebp),%eax
 804b02a:	89 04 24             	mov    %eax,(%esp)
 804b02d:	e8 58 0e 00 00       	call   804be8a <_ZN6Object11setPositionE8Position>
 804b032:	8d 45 e0             	lea    -0x20(%ebp),%eax
 804b035:	89 04 24             	mov    %eax,(%esp)
 804b038:	e8 77 0a 00 00       	call   804bab4 <_ZN8PositionD1Ev>
 804b03d:	be 00 00 00 00       	mov    $0x0,%esi
 804b042:	89 f0                	mov    %esi,%eax
 804b044:	8d 65 f8             	lea    -0x8(%ebp),%esp
 804b047:	5b                   	pop    %ebx
 804b048:	5e                   	pop    %esi
 804b049:	5d                   	pop    %ebp
 804b04a:	c3                   	ret    
 804b04b:	89 c3                	mov    %eax,%ebx
 804b04d:	8d 45 d0             	lea    -0x30(%ebp),%eax
 804b050:	89 04 24             	mov    %eax,(%esp)
 804b053:	e8 5c 0a 00 00       	call   804bab4 <_ZN8PositionD1Ev>
 804b058:	89 d8                	mov    %ebx,%eax
 804b05a:	89 04 24             	mov    %eax,(%esp)
 804b05d:	e8 5e de ff ff       	call   8048ec0 <_Unwind_Resume@plt>
 804b062:	89 c6                	mov    %eax,%esi
 804b064:	89 1c 24             	mov    %ebx,(%esp)
 804b067:	e8 34 dc ff ff       	call   8048ca0 <_ZdlPv@plt>
 804b06c:	89 f3                	mov    %esi,%ebx
 804b06e:	eb 20                	jmp    804b090 <_ZN12WorldManager10moveObjectEP6Object8Position+0x220>
 804b070:	89 c3                	mov    %eax,%ebx
 804b072:	8d 45 d8             	lea    -0x28(%ebp),%eax
 804b075:	89 04 24             	mov    %eax,(%esp)
 804b078:	e8 37 0a 00 00       	call   804bab4 <_ZN8PositionD1Ev>
 804b07d:	eb 11                	jmp    804b090 <_ZN12WorldManager10moveObjectEP6Object8Position+0x220>
 804b07f:	89 c3                	mov    %eax,%ebx
 804b081:	8d 45 b8             	lea    -0x48(%ebp),%eax
 804b084:	89 04 24             	mov    %eax,(%esp)
 804b087:	e8 42 e6 ff ff       	call   80496ce <_ZN14EventCollisionD1Ev>
 804b08c:	eb 02                	jmp    804b090 <_ZN12WorldManager10moveObjectEP6Object8Position+0x220>
 804b08e:	89 c3                	mov    %eax,%ebx
 804b090:	8d 85 a8 fd ff ff    	lea    -0x258(%ebp),%eax
 804b096:	89 04 24             	mov    %eax,(%esp)
 804b099:	e8 f4 16 00 00       	call   804c792 <_ZN10ObjectListD1Ev>
 804b09e:	89 d8                	mov    %ebx,%eax
 804b0a0:	89 04 24             	mov    %eax,(%esp)
 804b0a3:	e8 18 de ff ff       	call   8048ec0 <_Unwind_Resume@plt>
 804b0a8:	89 c3                	mov    %eax,%ebx
 804b0aa:	8d 45 e0             	lea    -0x20(%ebp),%eax
 804b0ad:	89 04 24             	mov    %eax,(%esp)
 804b0b0:	e8 ff 09 00 00       	call   804bab4 <_ZN8PositionD1Ev>
 804b0b5:	89 d8                	mov    %ebx,%eax
 804b0b7:	89 04 24             	mov    %eax,(%esp)
 804b0ba:	e8 01 de ff ff       	call   8048ec0 <_Unwind_Resume@plt>
 804b0bf:	90                   	nop

0804b0c0 <_ZN12WorldManager6updateEv>:
 804b0c0:	55                   	push   %ebp
 804b0c1:	89 e5                	mov    %esp,%ebp
 804b0c3:	56                   	push   %esi
 804b0c4:	53                   	push   %ebx
 804b0c5:	83 c4 80             	add    $0xffffff80,%esp
 804b0c8:	e8 45 f7 ff ff       	call   804a812 <_ZN15GraphicsManager11getInstanceEv>
 804b0cd:	89 45 cc             	mov    %eax,-0x34(%ebp)
 804b0d0:	e8 e3 07 00 00       	call   804b8b8 <_ZN10LogManager11getInstanceEv>
 804b0d5:	89 45 d0             	mov    %eax,-0x30(%ebp)
 804b0d8:	c7 44 24 04 34 da 04 	movl   $0x804da34,0x4(%esp)
 804b0df:	08 
 804b0e0:	8b 45 d0             	mov    -0x30(%ebp),%eax
 804b0e3:	89 04 24             	mov    %eax,(%esp)
 804b0e6:	e8 e7 08 00 00       	call   804b9d2 <_ZN10LogManager8writeLogEPKcz>
 804b0eb:	8b 45 08             	mov    0x8(%ebp),%eax
 804b0ee:	05 ec d1 00 00       	add    $0xd1ec,%eax
 804b0f3:	89 45 d4             	mov    %eax,-0x2c(%ebp)
 804b0f6:	c7 04 24 08 00 00 00 	movl   $0x8,(%esp)
 804b0fd:	e8 1e dd ff ff       	call   8048e20 <_Znwj@plt>
 804b102:	89 c3                	mov    %eax,%ebx
 804b104:	8b 45 d4             	mov    -0x2c(%ebp),%eax
 804b107:	89 44 24 04          	mov    %eax,0x4(%esp)
 804b10b:	89 1c 24             	mov    %ebx,(%esp)
 804b10e:	e8 4d 19 00 00       	call   804ca60 <_ZN18ObjectListIteratorC1EPK10ObjectList>
 804b113:	89 5d d8             	mov    %ebx,-0x28(%ebp)
 804b116:	8b 45 d8             	mov    -0x28(%ebp),%eax
 804b119:	89 04 24             	mov    %eax,(%esp)
 804b11c:	e8 65 19 00 00       	call   804ca86 <_ZN18ObjectListIterator5firstEv>
 804b121:	c7 44 24 04 58 da 04 	movl   $0x804da58,0x4(%esp)
 804b128:	08 
 804b129:	8b 45 d0             	mov    -0x30(%ebp),%eax
 804b12c:	89 04 24             	mov    %eax,(%esp)
 804b12f:	e8 9e 08 00 00       	call   804b9d2 <_ZN10LogManager8writeLogEPKcz>
 804b134:	eb 3e                	jmp    804b174 <_ZN12WorldManager6updateEv+0xb4>
 804b136:	8b 45 d8             	mov    -0x28(%ebp),%eax
 804b139:	89 04 24             	mov    %eax,(%esp)
 804b13c:	e8 a5 19 00 00       	call   804cae6 <_ZN18ObjectListIterator11currentItemEv>
 804b141:	8b 55 08             	mov    0x8(%ebp),%edx
 804b144:	81 c2 dc cf 00 00    	add    $0xcfdc,%edx
 804b14a:	89 44 24 04          	mov    %eax,0x4(%esp)
 804b14e:	89 14 24             	mov    %edx,(%esp)
 804b151:	e8 26 17 00 00       	call   804c87c <_ZN10ObjectList6removeEP6Object>
 804b156:	8b 45 d8             	mov    -0x28(%ebp),%eax
 804b159:	89 04 24             	mov    %eax,(%esp)
 804b15c:	e8 35 19 00 00       	call   804ca96 <_ZN18ObjectListIterator4nextEv>
 804b161:	c7 44 24 04 5e da 04 	movl   $0x804da5e,0x4(%esp)
 804b168:	08 
 804b169:	8b 45 d0             	mov    -0x30(%ebp),%eax
 804b16c:	89 04 24             	mov    %eax,(%esp)
 804b16f:	e8 5e 08 00 00       	call   804b9d2 <_ZN10LogManager8writeLogEPKcz>
 804b174:	8b 45 d8             	mov    -0x28(%ebp),%eax
 804b177:	89 04 24             	mov    %eax,(%esp)
 804b17a:	e8 2b 19 00 00       	call   804caaa <_ZN18ObjectListIterator6isDoneEv>
 804b17f:	83 f0 01             	xor    $0x1,%eax
 804b182:	84 c0                	test   %al,%al
 804b184:	75 b0                	jne    804b136 <_ZN12WorldManager6updateEv+0x76>
 804b186:	8b 45 08             	mov    0x8(%ebp),%eax
 804b189:	05 ec d1 00 00       	add    $0xd1ec,%eax
 804b18e:	89 04 24             	mov    %eax,(%esp)
 804b191:	e8 2a 18 00 00       	call   804c9c0 <_ZN10ObjectList5clearEv>
 804b196:	8b 45 08             	mov    0x8(%ebp),%eax
 804b199:	05 dc cf 00 00       	add    $0xcfdc,%eax
 804b19e:	89 45 dc             	mov    %eax,-0x24(%ebp)
 804b1a1:	c7 04 24 08 00 00 00 	movl   $0x8,(%esp)
 804b1a8:	e8 73 dc ff ff       	call   8048e20 <_Znwj@plt>
 804b1ad:	89 c3                	mov    %eax,%ebx
 804b1af:	8b 45 dc             	mov    -0x24(%ebp),%eax
 804b1b2:	89 44 24 04          	mov    %eax,0x4(%esp)
 804b1b6:	89 1c 24             	mov    %ebx,(%esp)
 804b1b9:	e8 a2 18 00 00       	call   804ca60 <_ZN18ObjectListIteratorC1EPK10ObjectList>
 804b1be:	89 5d e0             	mov    %ebx,-0x20(%ebp)
 804b1c1:	8b 45 e0             	mov    -0x20(%ebp),%eax
 804b1c4:	89 04 24             	mov    %eax,(%esp)
 804b1c7:	e8 ba 18 00 00       	call   804ca86 <_ZN18ObjectListIterator5firstEv>
 804b1cc:	c7 44 24 04 6a da 04 	movl   $0x804da6a,0x4(%esp)
 804b1d3:	08 
 804b1d4:	8b 45 d0             	mov    -0x30(%ebp),%eax
 804b1d7:	89 04 24             	mov    %eax,(%esp)
 804b1da:	e8 f3 07 00 00       	call   804b9d2 <_ZN10LogManager8writeLogEPKcz>
 804b1df:	e9 ff 02 00 00       	jmp    804b4e3 <_ZN12WorldManager6updateEv+0x423>
 804b1e4:	c7 44 24 04 70 da 04 	movl   $0x804da70,0x4(%esp)
 804b1eb:	08 
 804b1ec:	8b 45 d0             	mov    -0x30(%ebp),%eax
 804b1ef:	89 04 24             	mov    %eax,(%esp)
 804b1f2:	e8 db 07 00 00       	call   804b9d2 <_ZN10LogManager8writeLogEPKcz>
 804b1f7:	8b 45 e0             	mov    -0x20(%ebp),%eax
 804b1fa:	89 04 24             	mov    %eax,(%esp)
 804b1fd:	e8 e4 18 00 00       	call   804cae6 <_ZN18ObjectListIterator11currentItemEv>
 804b202:	89 04 24             	mov    %eax,(%esp)
 804b205:	e8 0a 0e 00 00       	call   804c014 <_ZN6Object16getXVelocityStepEv>
 804b20a:	89 45 e4             	mov    %eax,-0x1c(%ebp)
 804b20d:	8b 45 e0             	mov    -0x20(%ebp),%eax
 804b210:	89 04 24             	mov    %eax,(%esp)
 804b213:	e8 ce 18 00 00       	call   804cae6 <_ZN18ObjectListIterator11currentItemEv>
 804b218:	89 04 24             	mov    %eax,(%esp)
 804b21b:	e8 20 0e 00 00       	call   804c040 <_ZN6Object16getYVelocityStepEv>
 804b220:	89 45 e8             	mov    %eax,-0x18(%ebp)
 804b223:	83 7d e4 00          	cmpl   $0x0,-0x1c(%ebp)
 804b227:	75 0a                	jne    804b233 <_ZN12WorldManager6updateEv+0x173>
 804b229:	83 7d e8 00          	cmpl   $0x0,-0x18(%ebp)
 804b22d:	0f 84 a5 02 00 00    	je     804b4d8 <_ZN12WorldManager6updateEv+0x418>
 804b233:	8b 45 e0             	mov    -0x20(%ebp),%eax
 804b236:	89 04 24             	mov    %eax,(%esp)
 804b239:	e8 a8 18 00 00       	call   804cae6 <_ZN18ObjectListIterator11currentItemEv>
 804b23e:	89 c2                	mov    %eax,%edx
 804b240:	8d 45 9c             	lea    -0x64(%ebp),%eax
 804b243:	89 54 24 04          	mov    %edx,0x4(%esp)
 804b247:	89 04 24             	mov    %eax,(%esp)
 804b24a:	e8 57 0c 00 00       	call   804bea6 <_ZN6Object11getPositionEv>
 804b24f:	83 ec 04             	sub    $0x4,%esp
 804b252:	8d 45 a4             	lea    -0x5c(%ebp),%eax
 804b255:	89 04 24             	mov    %eax,(%esp)
 804b258:	e8 f7 07 00 00       	call   804ba54 <_ZN8PositionC1Ev>
 804b25d:	8d 45 9c             	lea    -0x64(%ebp),%eax
 804b260:	89 04 24             	mov    %eax,(%esp)
 804b263:	e8 36 08 00 00       	call   804ba9e <_ZN8Position4getXEv>
 804b268:	03 45 e4             	add    -0x1c(%ebp),%eax
 804b26b:	89 44 24 04          	mov    %eax,0x4(%esp)
 804b26f:	8d 45 a4             	lea    -0x5c(%ebp),%eax
 804b272:	89 04 24             	mov    %eax,(%esp)
 804b275:	e8 08 08 00 00       	call   804ba82 <_ZN8Position4setXEi>
 804b27a:	8d 45 9c             	lea    -0x64(%ebp),%eax
 804b27d:	89 04 24             	mov    %eax,(%esp)
 804b280:	e8 23 08 00 00       	call   804baa8 <_ZN8Position4getYEv>
 804b285:	03 45 e8             	add    -0x18(%ebp),%eax
 804b288:	89 44 24 04          	mov    %eax,0x4(%esp)
 804b28c:	8d 45 a4             	lea    -0x5c(%ebp),%eax
 804b28f:	89 04 24             	mov    %eax,(%esp)
 804b292:	e8 f9 07 00 00       	call   804ba90 <_ZN8Position4setYEi>
 804b297:	8d 45 a4             	lea    -0x5c(%ebp),%eax
 804b29a:	89 04 24             	mov    %eax,(%esp)
 804b29d:	e8 fc 07 00 00       	call   804ba9e <_ZN8Position4getXEv>
 804b2a2:	89 45 ec             	mov    %eax,-0x14(%ebp)
 804b2a5:	8d 45 a4             	lea    -0x5c(%ebp),%eax
 804b2a8:	89 04 24             	mov    %eax,(%esp)
 804b2ab:	e8 f8 07 00 00       	call   804baa8 <_ZN8Position4getYEv>
 804b2b0:	89 45 f0             	mov    %eax,-0x10(%ebp)
 804b2b3:	83 7d ec 00          	cmpl   $0x0,-0x14(%ebp)
 804b2b7:	78 26                	js     804b2df <_ZN12WorldManager6updateEv+0x21f>
 804b2b9:	8b 45 cc             	mov    -0x34(%ebp),%eax
 804b2bc:	89 04 24             	mov    %eax,(%esp)
 804b2bf:	e8 ee f6 ff ff       	call   804a9b2 <_ZN15GraphicsManager9getXBoundEv>
 804b2c4:	3b 45 ec             	cmp    -0x14(%ebp),%eax
 804b2c7:	7c 16                	jl     804b2df <_ZN12WorldManager6updateEv+0x21f>
 804b2c9:	83 7d f0 00          	cmpl   $0x0,-0x10(%ebp)
 804b2cd:	78 10                	js     804b2df <_ZN12WorldManager6updateEv+0x21f>
 804b2cf:	8b 45 cc             	mov    -0x34(%ebp),%eax
 804b2d2:	89 04 24             	mov    %eax,(%esp)
 804b2d5:	e8 32 f7 ff ff       	call   804aa0c <_ZN15GraphicsManager9getYBoundEv>
 804b2da:	3b 45 f0             	cmp    -0x10(%ebp),%eax
 804b2dd:	7d 07                	jge    804b2e6 <_ZN12WorldManager6updateEv+0x226>
 804b2df:	b8 01 00 00 00       	mov    $0x1,%eax
 804b2e4:	eb 05                	jmp    804b2eb <_ZN12WorldManager6updateEv+0x22b>
 804b2e6:	b8 00 00 00 00       	mov    $0x0,%eax
 804b2eb:	84 c0                	test   %al,%al
 804b2ed:	74 28                	je     804b317 <_ZN12WorldManager6updateEv+0x257>
 804b2ef:	8d 45 8c             	lea    -0x74(%ebp),%eax
 804b2f2:	89 04 24             	mov    %eax,(%esp)
 804b2f5:	e8 52 e4 ff ff       	call   804974c <_ZN8EventOutC1Ev>
 804b2fa:	8b 45 08             	mov    0x8(%ebp),%eax
 804b2fd:	8d 55 8c             	lea    -0x74(%ebp),%edx
 804b300:	89 54 24 04          	mov    %edx,0x4(%esp)
 804b304:	89 04 24             	mov    %eax,(%esp)
 804b307:	e8 36 ea ff ff       	call   8049d42 <_ZN7Manager7onEventEP5Event>
 804b30c:	8d 45 8c             	lea    -0x74(%ebp),%eax
 804b30f:	89 04 24             	mov    %eax,(%esp)
 804b312:	e8 a5 e4 ff ff       	call   80497bc <_ZN8EventOutD1Ev>
 804b317:	8d 45 a4             	lea    -0x5c(%ebp),%eax
 804b31a:	89 04 24             	mov    %eax,(%esp)
 804b31d:	e8 7c 07 00 00       	call   804ba9e <_ZN8Position4getXEv>
 804b322:	89 44 24 08          	mov    %eax,0x8(%esp)
 804b326:	c7 44 24 04 89 da 04 	movl   $0x804da89,0x4(%esp)
 804b32d:	08 
 804b32e:	8b 45 d0             	mov    -0x30(%ebp),%eax
 804b331:	89 04 24             	mov    %eax,(%esp)
 804b334:	e8 99 06 00 00       	call   804b9d2 <_ZN10LogManager8writeLogEPKcz>
 804b339:	8b 45 a4             	mov    -0x5c(%ebp),%eax
 804b33c:	89 45 ac             	mov    %eax,-0x54(%ebp)
 804b33f:	8b 45 a8             	mov    -0x58(%ebp),%eax
 804b342:	89 45 b0             	mov    %eax,-0x50(%ebp)
 804b345:	8b 45 e0             	mov    -0x20(%ebp),%eax
 804b348:	89 04 24             	mov    %eax,(%esp)
 804b34b:	e8 96 17 00 00       	call   804cae6 <_ZN18ObjectListIterator11currentItemEv>
 804b350:	8d 55 ac             	lea    -0x54(%ebp),%edx
 804b353:	89 54 24 04          	mov    %edx,0x4(%esp)
 804b357:	89 04 24             	mov    %eax,(%esp)
 804b35a:	e8 2b 0b 00 00       	call   804be8a <_ZN6Object11setPositionE8Position>
 804b35f:	8d 45 ac             	lea    -0x54(%ebp),%eax
 804b362:	89 04 24             	mov    %eax,(%esp)
 804b365:	e8 4a 07 00 00       	call   804bab4 <_ZN8PositionD1Ev>
 804b36a:	8b 45 e0             	mov    -0x20(%ebp),%eax
 804b36d:	89 04 24             	mov    %eax,(%esp)
 804b370:	e8 71 17 00 00       	call   804cae6 <_ZN18ObjectListIterator11currentItemEv>
 804b375:	89 c2                	mov    %eax,%edx
 804b377:	8d 45 b4             	lea    -0x4c(%ebp),%eax
 804b37a:	89 54 24 04          	mov    %edx,0x4(%esp)
 804b37e:	89 04 24             	mov    %eax,(%esp)
 804b381:	e8 20 0b 00 00       	call   804bea6 <_ZN6Object11getPositionEv>
 804b386:	83 ec 04             	sub    $0x4,%esp
 804b389:	8b 45 e0             	mov    -0x20(%ebp),%eax
 804b38c:	89 04 24             	mov    %eax,(%esp)
 804b38f:	e8 52 17 00 00       	call   804cae6 <_ZN18ObjectListIterator11currentItemEv>
 804b394:	89 04 24             	mov    %eax,(%esp)
 804b397:	e8 de 0a 00 00       	call   804be7a <_ZN6Object9getSpriteEv>
 804b39c:	88 45 f7             	mov    %al,-0x9(%ebp)
 804b39f:	8d 45 b4             	lea    -0x4c(%ebp),%eax
 804b3a2:	89 04 24             	mov    %eax,(%esp)
 804b3a5:	e8 f4 06 00 00       	call   804ba9e <_ZN8Position4getXEv>
 804b3aa:	89 44 24 08          	mov    %eax,0x8(%esp)
 804b3ae:	c7 44 24 04 a3 da 04 	movl   $0x804daa3,0x4(%esp)
 804b3b5:	08 
 804b3b6:	8b 45 d0             	mov    -0x30(%ebp),%eax
 804b3b9:	89 04 24             	mov    %eax,(%esp)
 804b3bc:	e8 11 06 00 00       	call   804b9d2 <_ZN10LogManager8writeLogEPKcz>
 804b3c1:	0f be 45 f7          	movsbl -0x9(%ebp),%eax
 804b3c5:	89 44 24 08          	mov    %eax,0x8(%esp)
 804b3c9:	c7 44 24 04 b4 da 04 	movl   $0x804dab4,0x4(%esp)
 804b3d0:	08 
 804b3d1:	8b 45 d0             	mov    -0x30(%ebp),%eax
 804b3d4:	89 04 24             	mov    %eax,(%esp)
 804b3d7:	e8 f6 05 00 00       	call   804b9d2 <_ZN10LogManager8writeLogEPKcz>
 804b3dc:	8b 45 9c             	mov    -0x64(%ebp),%eax
 804b3df:	89 45 bc             	mov    %eax,-0x44(%ebp)
 804b3e2:	8b 45 a0             	mov    -0x60(%ebp),%eax
 804b3e5:	89 45 c0             	mov    %eax,-0x40(%ebp)
 804b3e8:	8d 45 bc             	lea    -0x44(%ebp),%eax
 804b3eb:	89 44 24 04          	mov    %eax,0x4(%esp)
 804b3ef:	8b 45 cc             	mov    -0x34(%ebp),%eax
 804b3f2:	89 04 24             	mov    %eax,(%esp)
 804b3f5:	e8 70 f5 ff ff       	call   804a96a <_ZN15GraphicsManager10deleteCharE8Position>
 804b3fa:	8d 45 bc             	lea    -0x44(%ebp),%eax
 804b3fd:	89 04 24             	mov    %eax,(%esp)
 804b400:	e8 af 06 00 00       	call   804bab4 <_ZN8PositionD1Ev>
 804b405:	8d 45 9c             	lea    -0x64(%ebp),%eax
 804b408:	89 04 24             	mov    %eax,(%esp)
 804b40b:	e8 8e 06 00 00       	call   804ba9e <_ZN8Position4getXEv>
 804b410:	89 c3                	mov    %eax,%ebx
 804b412:	8b 45 cc             	mov    -0x34(%ebp),%eax
 804b415:	89 04 24             	mov    %eax,(%esp)
 804b418:	e8 95 f5 ff ff       	call   804a9b2 <_ZN15GraphicsManager9getXBoundEv>
 804b41d:	83 e8 01             	sub    $0x1,%eax
 804b420:	39 c3                	cmp    %eax,%ebx
 804b422:	7d 46                	jge    804b46a <_ZN12WorldManager6updateEv+0x3aa>
 804b424:	8d 45 9c             	lea    -0x64(%ebp),%eax
 804b427:	89 04 24             	mov    %eax,(%esp)
 804b42a:	e8 6f 06 00 00       	call   804ba9e <_ZN8Position4getXEv>
 804b42f:	83 f8 01             	cmp    $0x1,%eax
 804b432:	7e 36                	jle    804b46a <_ZN12WorldManager6updateEv+0x3aa>
 804b434:	8d 45 9c             	lea    -0x64(%ebp),%eax
 804b437:	89 04 24             	mov    %eax,(%esp)
 804b43a:	e8 69 06 00 00       	call   804baa8 <_ZN8Position4getYEv>
 804b43f:	89 c3                	mov    %eax,%ebx
 804b441:	8b 45 cc             	mov    -0x34(%ebp),%eax
 804b444:	89 04 24             	mov    %eax,(%esp)
 804b447:	e8 c0 f5 ff ff       	call   804aa0c <_ZN15GraphicsManager9getYBoundEv>
 804b44c:	83 e8 01             	sub    $0x1,%eax
 804b44f:	39 c3                	cmp    %eax,%ebx
 804b451:	7d 17                	jge    804b46a <_ZN12WorldManager6updateEv+0x3aa>
 804b453:	8d 45 9c             	lea    -0x64(%ebp),%eax
 804b456:	89 04 24             	mov    %eax,(%esp)
 804b459:	e8 4a 06 00 00       	call   804baa8 <_ZN8Position4getYEv>
 804b45e:	83 f8 01             	cmp    $0x1,%eax
 804b461:	7e 07                	jle    804b46a <_ZN12WorldManager6updateEv+0x3aa>
 804b463:	b8 01 00 00 00       	mov    $0x1,%eax
 804b468:	eb 05                	jmp    804b46f <_ZN12WorldManager6updateEv+0x3af>
 804b46a:	b8 00 00 00 00       	mov    $0x0,%eax
 804b46f:	84 c0                	test   %al,%al
 804b471:	74 44                	je     804b4b7 <_ZN12WorldManager6updateEv+0x3f7>
 804b473:	0f be 45 f7          	movsbl -0x9(%ebp),%eax
 804b477:	8b 55 b4             	mov    -0x4c(%ebp),%edx
 804b47a:	89 55 c4             	mov    %edx,-0x3c(%ebp)
 804b47d:	8b 55 b8             	mov    -0x48(%ebp),%edx
 804b480:	89 55 c8             	mov    %edx,-0x38(%ebp)
 804b483:	89 44 24 08          	mov    %eax,0x8(%esp)
 804b487:	8d 45 c4             	lea    -0x3c(%ebp),%eax
 804b48a:	89 44 24 04          	mov    %eax,0x4(%esp)
 804b48e:	8b 45 cc             	mov    -0x34(%ebp),%eax
 804b491:	89 04 24             	mov    %eax,(%esp)
 804b494:	e8 7b f4 ff ff       	call   804a914 <_ZN15GraphicsManager9writeCharE8Positionc>
 804b499:	8d 45 c4             	lea    -0x3c(%ebp),%eax
 804b49c:	89 04 24             	mov    %eax,(%esp)
 804b49f:	e8 10 06 00 00       	call   804bab4 <_ZN8PositionD1Ev>
 804b4a4:	c7 44 24 04 c9 da 04 	movl   $0x804dac9,0x4(%esp)
 804b4ab:	08 
 804b4ac:	8b 45 d0             	mov    -0x30(%ebp),%eax
 804b4af:	89 04 24             	mov    %eax,(%esp)
 804b4b2:	e8 1b 05 00 00       	call   804b9d2 <_ZN10LogManager8writeLogEPKcz>
 804b4b7:	8d 45 b4             	lea    -0x4c(%ebp),%eax
 804b4ba:	89 04 24             	mov    %eax,(%esp)
 804b4bd:	e8 f2 05 00 00       	call   804bab4 <_ZN8PositionD1Ev>
 804b4c2:	8d 45 a4             	lea    -0x5c(%ebp),%eax
 804b4c5:	89 04 24             	mov    %eax,(%esp)
 804b4c8:	e8 e7 05 00 00       	call   804bab4 <_ZN8PositionD1Ev>
 804b4cd:	8d 45 9c             	lea    -0x64(%ebp),%eax
 804b4d0:	89 04 24             	mov    %eax,(%esp)
 804b4d3:	e8 dc 05 00 00       	call   804bab4 <_ZN8PositionD1Ev>
 804b4d8:	8b 45 e0             	mov    -0x20(%ebp),%eax
 804b4db:	89 04 24             	mov    %eax,(%esp)
 804b4de:	e8 b3 15 00 00       	call   804ca96 <_ZN18ObjectListIterator4nextEv>
 804b4e3:	8b 45 e0             	mov    -0x20(%ebp),%eax
 804b4e6:	89 04 24             	mov    %eax,(%esp)
 804b4e9:	e8 bc 15 00 00       	call   804caaa <_ZN18ObjectListIterator6isDoneEv>
 804b4ee:	83 f0 01             	xor    $0x1,%eax
 804b4f1:	84 c0                	test   %al,%al
 804b4f3:	0f 85 eb fc ff ff    	jne    804b1e4 <_ZN12WorldManager6updateEv+0x124>
 804b4f9:	c7 44 24 04 e0 da 04 	movl   $0x804dae0,0x4(%esp)
 804b500:	08 
 804b501:	8b 45 d0             	mov    -0x30(%ebp),%eax
 804b504:	89 04 24             	mov    %eax,(%esp)
 804b507:	e8 c6 04 00 00       	call   804b9d2 <_ZN10LogManager8writeLogEPKcz>
 804b50c:	8d 65 f8             	lea    -0x8(%ebp),%esp
 804b50f:	5b                   	pop    %ebx
 804b510:	5e                   	pop    %esi
 804b511:	5d                   	pop    %ebp
 804b512:	c3                   	ret    
 804b513:	89 c6                	mov    %eax,%esi
 804b515:	89 1c 24             	mov    %ebx,(%esp)
 804b518:	e8 83 d7 ff ff       	call   8048ca0 <_ZdlPv@plt>
 804b51d:	89 f0                	mov    %esi,%eax
 804b51f:	89 04 24             	mov    %eax,(%esp)
 804b522:	e8 99 d9 ff ff       	call   8048ec0 <_Unwind_Resume@plt>
 804b527:	89 c6                	mov    %eax,%esi
 804b529:	89 1c 24             	mov    %ebx,(%esp)
 804b52c:	e8 6f d7 ff ff       	call   8048ca0 <_ZdlPv@plt>
 804b531:	89 f0                	mov    %esi,%eax
 804b533:	89 04 24             	mov    %eax,(%esp)
 804b536:	e8 85 d9 ff ff       	call   8048ec0 <_Unwind_Resume@plt>
 804b53b:	89 c3                	mov    %eax,%ebx
 804b53d:	8d 45 8c             	lea    -0x74(%ebp),%eax
 804b540:	89 04 24             	mov    %eax,(%esp)
 804b543:	e8 74 e2 ff ff       	call   80497bc <_ZN8EventOutD1Ev>
 804b548:	eb 3e                	jmp    804b588 <_ZN12WorldManager6updateEv+0x4c8>
 804b54a:	89 c3                	mov    %eax,%ebx
 804b54c:	8d 45 ac             	lea    -0x54(%ebp),%eax
 804b54f:	89 04 24             	mov    %eax,(%esp)
 804b552:	e8 5d 05 00 00       	call   804bab4 <_ZN8PositionD1Ev>
 804b557:	eb 2f                	jmp    804b588 <_ZN12WorldManager6updateEv+0x4c8>
 804b559:	89 c3                	mov    %eax,%ebx
 804b55b:	8d 45 bc             	lea    -0x44(%ebp),%eax
 804b55e:	89 04 24             	mov    %eax,(%esp)
 804b561:	e8 4e 05 00 00       	call   804bab4 <_ZN8PositionD1Ev>
 804b566:	eb 11                	jmp    804b579 <_ZN12WorldManager6updateEv+0x4b9>
 804b568:	89 c3                	mov    %eax,%ebx
 804b56a:	8d 45 c4             	lea    -0x3c(%ebp),%eax
 804b56d:	89 04 24             	mov    %eax,(%esp)
 804b570:	e8 3f 05 00 00       	call   804bab4 <_ZN8PositionD1Ev>
 804b575:	eb 02                	jmp    804b579 <_ZN12WorldManager6updateEv+0x4b9>
 804b577:	89 c3                	mov    %eax,%ebx
 804b579:	8d 45 b4             	lea    -0x4c(%ebp),%eax
 804b57c:	89 04 24             	mov    %eax,(%esp)
 804b57f:	e8 30 05 00 00       	call   804bab4 <_ZN8PositionD1Ev>
 804b584:	eb 02                	jmp    804b588 <_ZN12WorldManager6updateEv+0x4c8>
 804b586:	89 c3                	mov    %eax,%ebx
 804b588:	8d 45 a4             	lea    -0x5c(%ebp),%eax
 804b58b:	89 04 24             	mov    %eax,(%esp)
 804b58e:	e8 21 05 00 00       	call   804bab4 <_ZN8PositionD1Ev>
 804b593:	eb 02                	jmp    804b597 <_ZN12WorldManager6updateEv+0x4d7>
 804b595:	89 c3                	mov    %eax,%ebx
 804b597:	8d 45 9c             	lea    -0x64(%ebp),%eax
 804b59a:	89 04 24             	mov    %eax,(%esp)
 804b59d:	e8 12 05 00 00       	call   804bab4 <_ZN8PositionD1Ev>
 804b5a2:	89 d8                	mov    %ebx,%eax
 804b5a4:	89 04 24             	mov    %eax,(%esp)
 804b5a7:	e8 14 d9 ff ff       	call   8048ec0 <_Unwind_Resume@plt>

0804b5ac <_ZN12WorldManager7isValidESs>:
 804b5ac:	55                   	push   %ebp
 804b5ad:	89 e5                	mov    %esp,%ebp
 804b5af:	83 ec 18             	sub    $0x18,%esp
 804b5b2:	c7 44 24 04 09 db 04 	movl   $0x804db09,0x4(%esp)
 804b5b9:	08 
 804b5ba:	8b 45 0c             	mov    0xc(%ebp),%eax
 804b5bd:	89 04 24             	mov    %eax,(%esp)
 804b5c0:	e8 db ed ff ff       	call   804a3a0 <_ZSteqIcSt11char_traitsIcESaIcEEbRKSbIT_T0_T1_EPKS3_>
 804b5c5:	84 c0                	test   %al,%al
 804b5c7:	75 17                	jne    804b5e0 <_ZN12WorldManager7isValidESs+0x34>
 804b5c9:	c7 44 24 04 0d db 04 	movl   $0x804db0d,0x4(%esp)
 804b5d0:	08 
 804b5d1:	8b 45 0c             	mov    0xc(%ebp),%eax
 804b5d4:	89 04 24             	mov    %eax,(%esp)
 804b5d7:	e8 c4 ed ff ff       	call   804a3a0 <_ZSteqIcSt11char_traitsIcESaIcEEbRKSbIT_T0_T1_EPKS3_>
 804b5dc:	84 c0                	test   %al,%al
 804b5de:	74 07                	je     804b5e7 <_ZN12WorldManager7isValidESs+0x3b>
 804b5e0:	b8 01 00 00 00       	mov    $0x1,%eax
 804b5e5:	eb 05                	jmp    804b5ec <_ZN12WorldManager7isValidESs+0x40>
 804b5e7:	b8 00 00 00 00       	mov    $0x0,%eax
 804b5ec:	84 c0                	test   %al,%al
 804b5ee:	74 07                	je     804b5f7 <_ZN12WorldManager7isValidESs+0x4b>
 804b5f0:	b8 01 00 00 00       	mov    $0x1,%eax
 804b5f5:	eb 05                	jmp    804b5fc <_ZN12WorldManager7isValidESs+0x50>
 804b5f7:	b8 00 00 00 00       	mov    $0x0,%eax
 804b5fc:	c9                   	leave  
 804b5fd:	c3                   	ret    

0804b5fe <_ZN6ObjectC1ERKS_>:
 804b5fe:	55                   	push   %ebp
 804b5ff:	89 e5                	mov    %esp,%ebp
 804b601:	57                   	push   %edi
 804b602:	56                   	push   %esi
 804b603:	53                   	push   %ebx
 804b604:	83 ec 2c             	sub    $0x2c,%esp
 804b607:	8b 45 08             	mov    0x8(%ebp),%eax
 804b60a:	c7 00 f0 db 04 08    	movl   $0x804dbf0,(%eax)
 804b610:	8b 45 0c             	mov    0xc(%ebp),%eax
 804b613:	8b 50 04             	mov    0x4(%eax),%edx
 804b616:	8b 45 08             	mov    0x8(%ebp),%eax
 804b619:	89 50 04             	mov    %edx,0x4(%eax)
 804b61c:	8b 45 08             	mov    0x8(%ebp),%eax
 804b61f:	8d 70 08             	lea    0x8(%eax),%esi
 804b622:	89 f7                	mov    %esi,%edi
 804b624:	bb 63 00 00 00       	mov    $0x63,%ebx
 804b629:	8b 45 0c             	mov    0xc(%ebp),%eax
 804b62c:	83 c0 08             	add    $0x8,%eax
 804b62f:	89 45 e4             	mov    %eax,-0x1c(%ebp)
 804b632:	eb 19                	jmp    804b64d <_ZN6ObjectC1ERKS_+0x4f>
 804b634:	8b 45 e4             	mov    -0x1c(%ebp),%eax
 804b637:	89 44 24 04          	mov    %eax,0x4(%esp)
 804b63b:	89 3c 24             	mov    %edi,(%esp)
 804b63e:	e8 bd d6 ff ff       	call   8048d00 <_ZNSsC1ERKSs@plt>
 804b643:	83 c7 04             	add    $0x4,%edi
 804b646:	83 45 e4 04          	addl   $0x4,-0x1c(%ebp)
 804b64a:	83 eb 01             	sub    $0x1,%ebx
 804b64d:	83 fb ff             	cmp    $0xffffffff,%ebx
 804b650:	0f 95 c0             	setne  %al
 804b653:	84 c0                	test   %al,%al
 804b655:	75 dd                	jne    804b634 <_ZN6ObjectC1ERKS_+0x36>
 804b657:	8b 45 08             	mov    0x8(%ebp),%eax
 804b65a:	8b 55 0c             	mov    0xc(%ebp),%edx
 804b65d:	8b 8a 98 01 00 00    	mov    0x198(%edx),%ecx
 804b663:	89 88 98 01 00 00    	mov    %ecx,0x198(%eax)
 804b669:	8b 92 9c 01 00 00    	mov    0x19c(%edx),%edx
 804b66f:	89 90 9c 01 00 00    	mov    %edx,0x19c(%eax)
 804b675:	8b 45 0c             	mov    0xc(%ebp),%eax
 804b678:	8d 90 a0 01 00 00    	lea    0x1a0(%eax),%edx
 804b67e:	8b 45 08             	mov    0x8(%ebp),%eax
 804b681:	05 a0 01 00 00       	add    $0x1a0,%eax
 804b686:	89 54 24 04          	mov    %edx,0x4(%esp)
 804b68a:	89 04 24             	mov    %eax,(%esp)
 804b68d:	e8 6e d6 ff ff       	call   8048d00 <_ZNSsC1ERKSs@plt>
 804b692:	8b 45 0c             	mov    0xc(%ebp),%eax
 804b695:	8b 90 a4 01 00 00    	mov    0x1a4(%eax),%edx
 804b69b:	8b 45 08             	mov    0x8(%ebp),%eax
 804b69e:	89 90 a4 01 00 00    	mov    %edx,0x1a4(%eax)
 804b6a4:	8b 45 0c             	mov    0xc(%ebp),%eax
 804b6a7:	dd 80 a8 01 00 00    	fldl   0x1a8(%eax)
 804b6ad:	8b 45 08             	mov    0x8(%ebp),%eax
 804b6b0:	dd 98 a8 01 00 00    	fstpl  0x1a8(%eax)
 804b6b6:	8b 45 0c             	mov    0xc(%ebp),%eax
 804b6b9:	dd 80 b0 01 00 00    	fldl   0x1b0(%eax)
 804b6bf:	8b 45 08             	mov    0x8(%ebp),%eax
 804b6c2:	dd 98 b0 01 00 00    	fstpl  0x1b0(%eax)
 804b6c8:	8b 45 0c             	mov    0xc(%ebp),%eax
 804b6cb:	dd 80 b8 01 00 00    	fldl   0x1b8(%eax)
 804b6d1:	8b 45 08             	mov    0x8(%ebp),%eax
 804b6d4:	dd 98 b8 01 00 00    	fstpl  0x1b8(%eax)
 804b6da:	8b 45 0c             	mov    0xc(%ebp),%eax
 804b6dd:	dd 80 c0 01 00 00    	fldl   0x1c0(%eax)
 804b6e3:	8b 45 08             	mov    0x8(%ebp),%eax
 804b6e6:	dd 98 c0 01 00 00    	fstpl  0x1c0(%eax)
 804b6ec:	8b 45 0c             	mov    0xc(%ebp),%eax
 804b6ef:	0f b6 90 c8 01 00 00 	movzbl 0x1c8(%eax),%edx
 804b6f6:	8b 45 08             	mov    0x8(%ebp),%eax
 804b6f9:	88 90 c8 01 00 00    	mov    %dl,0x1c8(%eax)
 804b6ff:	8b 45 0c             	mov    0xc(%ebp),%eax
 804b702:	8b 90 cc 01 00 00    	mov    0x1cc(%eax),%edx
 804b708:	8b 45 08             	mov    0x8(%ebp),%eax
 804b70b:	89 90 cc 01 00 00    	mov    %edx,0x1cc(%eax)
 804b711:	83 c4 2c             	add    $0x2c,%esp
 804b714:	5b                   	pop    %ebx
 804b715:	5e                   	pop    %esi
 804b716:	5f                   	pop    %edi
 804b717:	5d                   	pop    %ebp
 804b718:	c3                   	ret    
 804b719:	89 c7                	mov    %eax,%edi
 804b71b:	85 f6                	test   %esi,%esi
 804b71d:	74 1e                	je     804b73d <_ZN6ObjectC1ERKS_+0x13f>
 804b71f:	b8 63 00 00 00       	mov    $0x63,%eax
 804b724:	29 d8                	sub    %ebx,%eax
 804b726:	c1 e0 02             	shl    $0x2,%eax
 804b729:	8d 1c 06             	lea    (%esi,%eax,1),%ebx
 804b72c:	39 f3                	cmp    %esi,%ebx
 804b72e:	74 0d                	je     804b73d <_ZN6ObjectC1ERKS_+0x13f>
 804b730:	83 eb 04             	sub    $0x4,%ebx
 804b733:	89 1c 24             	mov    %ebx,(%esp)
 804b736:	e8 05 d6 ff ff       	call   8048d40 <_ZNSsD1Ev@plt>
 804b73b:	eb ef                	jmp    804b72c <_ZN6ObjectC1ERKS_+0x12e>
 804b73d:	89 f8                	mov    %edi,%eax
 804b73f:	89 04 24             	mov    %eax,(%esp)
 804b742:	e8 79 d7 ff ff       	call   8048ec0 <_Unwind_Resume@plt>
 804b747:	89 c3                	mov    %eax,%ebx
 804b749:	8b 45 08             	mov    0x8(%ebp),%eax
 804b74c:	05 98 01 00 00       	add    $0x198,%eax
 804b751:	89 04 24             	mov    %eax,(%esp)
 804b754:	e8 5b 03 00 00       	call   804bab4 <_ZN8PositionD1Ev>
 804b759:	89 de                	mov    %ebx,%esi
 804b75b:	8b 45 08             	mov    0x8(%ebp),%eax
 804b75e:	83 c0 08             	add    $0x8,%eax
 804b761:	85 c0                	test   %eax,%eax
 804b763:	74 20                	je     804b785 <_ZN6ObjectC1ERKS_+0x187>
 804b765:	8b 45 08             	mov    0x8(%ebp),%eax
 804b768:	8d 98 98 01 00 00    	lea    0x198(%eax),%ebx
 804b76e:	8b 45 08             	mov    0x8(%ebp),%eax
 804b771:	83 c0 08             	add    $0x8,%eax
 804b774:	39 c3                	cmp    %eax,%ebx
 804b776:	74 0d                	je     804b785 <_ZN6ObjectC1ERKS_+0x187>
 804b778:	83 eb 04             	sub    $0x4,%ebx
 804b77b:	89 1c 24             	mov    %ebx,(%esp)
 804b77e:	e8 bd d5 ff ff       	call   8048d40 <_ZNSsD1Ev@plt>
 804b783:	eb e9                	jmp    804b76e <_ZN6ObjectC1ERKS_+0x170>
 804b785:	89 f0                	mov    %esi,%eax
 804b787:	89 04 24             	mov    %eax,(%esp)
 804b78a:	e8 31 d7 ff ff       	call   8048ec0 <_Unwind_Resume@plt>
 804b78f:	90                   	nop

0804b790 <_ZN10ObjectListC1ERKS_>:
 804b790:	55                   	push   %ebp
 804b791:	89 e5                	mov    %esp,%ebp
 804b793:	83 ec 18             	sub    $0x18,%esp
 804b796:	8b 55 0c             	mov    0xc(%ebp),%edx
 804b799:	8b 45 08             	mov    0x8(%ebp),%eax
 804b79c:	89 54 24 04          	mov    %edx,0x4(%esp)
 804b7a0:	89 04 24             	mov    %eax,(%esp)
 804b7a3:	e8 56 fe ff ff       	call   804b5fe <_ZN6ObjectC1ERKS_>
 804b7a8:	8b 45 08             	mov    0x8(%ebp),%eax
 804b7ab:	c7 00 28 dc 04 08    	movl   $0x804dc28,(%eax)
 804b7b1:	8b 45 0c             	mov    0xc(%ebp),%eax
 804b7b4:	8b 90 d0 01 00 00    	mov    0x1d0(%eax),%edx
 804b7ba:	8b 45 08             	mov    0x8(%ebp),%eax
 804b7bd:	89 90 d0 01 00 00    	mov    %edx,0x1d0(%eax)
 804b7c3:	8b 45 08             	mov    0x8(%ebp),%eax
 804b7c6:	8b 55 0c             	mov    0xc(%ebp),%edx
 804b7c9:	8b 8a d4 01 00 00    	mov    0x1d4(%edx),%ecx
 804b7cf:	89 88 d4 01 00 00    	mov    %ecx,0x1d4(%eax)
 804b7d5:	8b 8a d8 01 00 00    	mov    0x1d8(%edx),%ecx
 804b7db:	89 88 d8 01 00 00    	mov    %ecx,0x1d8(%eax)
 804b7e1:	8b 8a dc 01 00 00    	mov    0x1dc(%edx),%ecx
 804b7e7:	89 88 dc 01 00 00    	mov    %ecx,0x1dc(%eax)
 804b7ed:	8b 8a e0 01 00 00    	mov    0x1e0(%edx),%ecx
 804b7f3:	89 88 e0 01 00 00    	mov    %ecx,0x1e0(%eax)
 804b7f9:	8b 8a e4 01 00 00    	mov    0x1e4(%edx),%ecx
 804b7ff:	89 88 e4 01 00 00    	mov    %ecx,0x1e4(%eax)
 804b805:	8b 8a e8 01 00 00    	mov    0x1e8(%edx),%ecx
 804b80b:	89 88 e8 01 00 00    	mov    %ecx,0x1e8(%eax)
 804b811:	8b 8a ec 01 00 00    	mov    0x1ec(%edx),%ecx
 804b817:	89 88 ec 01 00 00    	mov    %ecx,0x1ec(%eax)
 804b81d:	8b 8a f0 01 00 00    	mov    0x1f0(%edx),%ecx
 804b823:	89 88 f0 01 00 00    	mov    %ecx,0x1f0(%eax)
 804b829:	8b 8a f4 01 00 00    	mov    0x1f4(%edx),%ecx
 804b82f:	89 88 f4 01 00 00    	mov    %ecx,0x1f4(%eax)
 804b835:	8b 8a f8 01 00 00    	mov    0x1f8(%edx),%ecx
 804b83b:	89 88 f8 01 00 00    	mov    %ecx,0x1f8(%eax)
 804b841:	8b 8a fc 01 00 00    	mov    0x1fc(%edx),%ecx
 804b847:	89 88 fc 01 00 00    	mov    %ecx,0x1fc(%eax)
 804b84d:	8b 8a 00 02 00 00    	mov    0x200(%edx),%ecx
 804b853:	89 88 00 02 00 00    	mov    %ecx,0x200(%eax)
 804b859:	8b 8a 04 02 00 00    	mov    0x204(%edx),%ecx
 804b85f:	89 88 04 02 00 00    	mov    %ecx,0x204(%eax)
 804b865:	8b 8a 08 02 00 00    	mov    0x208(%edx),%ecx
 804b86b:	89 88 08 02 00 00    	mov    %ecx,0x208(%eax)
 804b871:	8b 92 0c 02 00 00    	mov    0x20c(%edx),%edx
 804b877:	89 90 0c 02 00 00    	mov    %edx,0x20c(%eax)
 804b87d:	c9                   	leave  
 804b87e:	c3                   	ret    
 804b87f:	90                   	nop

0804b880 <_ZN10LogManagerC1Ev>:
 804b880:	55                   	push   %ebp
 804b881:	89 e5                	mov    %esp,%ebp
 804b883:	83 ec 18             	sub    $0x18,%esp
 804b886:	8b 45 08             	mov    0x8(%ebp),%eax
 804b889:	89 04 24             	mov    %eax,(%esp)
 804b88c:	e8 0b e0 ff ff       	call   804989c <_ZN7ManagerC1Ev>
 804b891:	8b 45 08             	mov    0x8(%ebp),%eax
 804b894:	c7 00 90 db 04 08    	movl   $0x804db90,(%eax)
 804b89a:	c9                   	leave  
 804b89b:	c3                   	ret    

0804b89c <_ZN10LogManagerD1Ev>:
 804b89c:	55                   	push   %ebp
 804b89d:	89 e5                	mov    %esp,%ebp
 804b89f:	83 ec 18             	sub    $0x18,%esp
 804b8a2:	8b 45 08             	mov    0x8(%ebp),%eax
 804b8a5:	c7 00 90 db 04 08    	movl   $0x804db90,(%eax)
 804b8ab:	8b 45 08             	mov    0x8(%ebp),%eax
 804b8ae:	89 04 24             	mov    %eax,(%esp)
 804b8b1:	e8 56 e1 ff ff       	call   8049a0c <_ZN7ManagerD1Ev>
 804b8b6:	c9                   	leave  
 804b8b7:	c3                   	ret    

0804b8b8 <_ZN10LogManager11getInstanceEv>:
 804b8b8:	55                   	push   %ebp
 804b8b9:	89 e5                	mov    %esp,%ebp
 804b8bb:	56                   	push   %esi
 804b8bc:	53                   	push   %ebx
 804b8bd:	83 ec 10             	sub    $0x10,%esp
 804b8c0:	b8 e0 65 08 08       	mov    $0x80865e0,%eax
 804b8c5:	0f b6 00             	movzbl (%eax),%eax
 804b8c8:	84 c0                	test   %al,%al
 804b8ca:	75 4f                	jne    804b91b <_ZN10LogManager11getInstanceEv+0x63>
 804b8cc:	c7 04 24 e0 65 08 08 	movl   $0x80865e0,(%esp)
 804b8d3:	e8 98 d3 ff ff       	call   8048c70 <__cxa_guard_acquire@plt>
 804b8d8:	85 c0                	test   %eax,%eax
 804b8da:	0f 95 c0             	setne  %al
 804b8dd:	84 c0                	test   %al,%al
 804b8df:	74 3a                	je     804b91b <_ZN10LogManager11getInstanceEv+0x63>
 804b8e1:	be 00 00 00 00       	mov    $0x0,%esi
 804b8e6:	c7 04 24 00 66 08 08 	movl   $0x8086600,(%esp)
 804b8ed:	e8 8e ff ff ff       	call   804b880 <_ZN10LogManagerC1Ev>
 804b8f2:	c7 04 24 e0 65 08 08 	movl   $0x80865e0,(%esp)
 804b8f9:	e8 c2 d4 ff ff       	call   8048dc0 <__cxa_guard_release@plt>
 804b8fe:	b8 9c b8 04 08       	mov    $0x804b89c,%eax
 804b903:	c7 44 24 08 c4 20 05 	movl   $0x80520c4,0x8(%esp)
 804b90a:	08 
 804b90b:	c7 44 24 04 00 66 08 	movl   $0x8086600,0x4(%esp)
 804b912:	08 
 804b913:	89 04 24             	mov    %eax,(%esp)
 804b916:	e8 15 d3 ff ff       	call   8048c30 <__cxa_atexit@plt>
 804b91b:	b8 00 66 08 08       	mov    $0x8086600,%eax
 804b920:	83 c4 10             	add    $0x10,%esp
 804b923:	5b                   	pop    %ebx
 804b924:	5e                   	pop    %esi
 804b925:	5d                   	pop    %ebp
 804b926:	c3                   	ret    
 804b927:	89 c3                	mov    %eax,%ebx
 804b929:	89 f0                	mov    %esi,%eax
 804b92b:	84 c0                	test   %al,%al
 804b92d:	75 0c                	jne    804b93b <_ZN10LogManager11getInstanceEv+0x83>
 804b92f:	c7 04 24 e0 65 08 08 	movl   $0x80865e0,(%esp)
 804b936:	e8 55 d5 ff ff       	call   8048e90 <__cxa_guard_abort@plt>
 804b93b:	89 d8                	mov    %ebx,%eax
 804b93d:	89 04 24             	mov    %eax,(%esp)
 804b940:	e8 7b d5 ff ff       	call   8048ec0 <_Unwind_Resume@plt>
 804b945:	90                   	nop

0804b946 <_ZN10LogManager7startUpEb>:
 804b946:	55                   	push   %ebp
 804b947:	89 e5                	mov    %esp,%ebp
 804b949:	83 ec 28             	sub    $0x28,%esp
 804b94c:	8b 45 0c             	mov    0xc(%ebp),%eax
 804b94f:	88 45 f4             	mov    %al,-0xc(%ebp)
 804b952:	c7 44 24 04 4f db 04 	movl   $0x804db4f,0x4(%esp)
 804b959:	08 
 804b95a:	c7 04 24 51 db 04 08 	movl   $0x804db51,(%esp)
 804b961:	e8 6a d4 ff ff       	call   8048dd0 <fopen@plt>
 804b966:	89 c2                	mov    %eax,%edx
 804b968:	8b 45 08             	mov    0x8(%ebp),%eax
 804b96b:	89 90 dc cf 00 00    	mov    %edx,0xcfdc(%eax)
 804b971:	8b 45 08             	mov    0x8(%ebp),%eax
 804b974:	8b 80 dc cf 00 00    	mov    0xcfdc(%eax),%eax
 804b97a:	89 44 24 0c          	mov    %eax,0xc(%esp)
 804b97e:	c7 44 24 08 10 00 00 	movl   $0x10,0x8(%esp)
 804b985:	00 
 804b986:	c7 44 24 04 01 00 00 	movl   $0x1,0x4(%esp)
 804b98d:	00 
 804b98e:	c7 04 24 62 db 04 08 	movl   $0x804db62,(%esp)
 804b995:	e8 a6 d4 ff ff       	call   8048e40 <fwrite@plt>
 804b99a:	8b 45 08             	mov    0x8(%ebp),%eax
 804b99d:	0f b6 55 f4          	movzbl -0xc(%ebp),%edx
 804b9a1:	88 90 d9 cf 00 00    	mov    %dl,0xcfd9(%eax)
 804b9a7:	8b 45 08             	mov    0x8(%ebp),%eax
 804b9aa:	c6 80 d8 cf 00 00 01 	movb   $0x1,0xcfd8(%eax)
 804b9b1:	c9                   	leave  
 804b9b2:	c3                   	ret    
 804b9b3:	90                   	nop

0804b9b4 <_ZN10LogManager8shutDownEv>:
 804b9b4:	55                   	push   %ebp
 804b9b5:	89 e5                	mov    %esp,%ebp
 804b9b7:	83 ec 18             	sub    $0x18,%esp
 804b9ba:	8b 45 08             	mov    0x8(%ebp),%eax
 804b9bd:	8b 80 dc cf 00 00    	mov    0xcfdc(%eax),%eax
 804b9c3:	89 04 24             	mov    %eax,(%esp)
 804b9c6:	e8 e5 d3 ff ff       	call   8048db0 <fclose@plt>
 804b9cb:	b8 00 00 00 00       	mov    $0x0,%eax
 804b9d0:	c9                   	leave  
 804b9d1:	c3                   	ret    

0804b9d2 <_ZN10LogManager8writeLogEPKcz>:
 804b9d2:	55                   	push   %ebp
 804b9d3:	89 e5                	mov    %esp,%ebp
 804b9d5:	83 ec 28             	sub    $0x28,%esp
 804b9d8:	8b 45 08             	mov    0x8(%ebp),%eax
 804b9db:	8b 80 dc cf 00 00    	mov    0xcfdc(%eax),%eax
 804b9e1:	89 44 24 0c          	mov    %eax,0xc(%esp)
 804b9e5:	c7 44 24 08 0d 00 00 	movl   $0xd,0x8(%esp)
 804b9ec:	00 
 804b9ed:	c7 44 24 04 01 00 00 	movl   $0x1,0x4(%esp)
 804b9f4:	00 
 804b9f5:	c7 04 24 73 db 04 08 	movl   $0x804db73,(%esp)
 804b9fc:	e8 3f d4 ff ff       	call   8048e40 <fwrite@plt>
 804ba01:	8d 55 10             	lea    0x10(%ebp),%edx
 804ba04:	8d 45 f4             	lea    -0xc(%ebp),%eax
 804ba07:	89 10                	mov    %edx,(%eax)
 804ba09:	8b 55 f4             	mov    -0xc(%ebp),%edx
 804ba0c:	8b 45 08             	mov    0x8(%ebp),%eax
 804ba0f:	8b 80 dc cf 00 00    	mov    0xcfdc(%eax),%eax
 804ba15:	89 54 24 08          	mov    %edx,0x8(%esp)
 804ba19:	8b 55 0c             	mov    0xc(%ebp),%edx
 804ba1c:	89 54 24 04          	mov    %edx,0x4(%esp)
 804ba20:	89 04 24             	mov    %eax,(%esp)
 804ba23:	e8 58 d4 ff ff       	call   8048e80 <vfprintf@plt>
 804ba28:	8b 45 08             	mov    0x8(%ebp),%eax
 804ba2b:	0f b6 80 d9 cf 00 00 	movzbl 0xcfd9(%eax),%eax
 804ba32:	84 c0                	test   %al,%al
 804ba34:	74 11                	je     804ba47 <_ZN10LogManager8writeLogEPKcz+0x75>
 804ba36:	8b 45 08             	mov    0x8(%ebp),%eax
 804ba39:	8b 80 dc cf 00 00    	mov    0xcfdc(%eax),%eax
 804ba3f:	89 04 24             	mov    %eax,(%esp)
 804ba42:	e8 59 d3 ff ff       	call   8048da0 <fflush@plt>
 804ba47:	c9                   	leave  
 804ba48:	c3                   	ret    
 804ba49:	90                   	nop

0804ba4a <_ZN10LogManager7isValidESs>:
 804ba4a:	55                   	push   %ebp
 804ba4b:	89 e5                	mov    %esp,%ebp
 804ba4d:	b8 00 00 00 00       	mov    $0x0,%eax
 804ba52:	5d                   	pop    %ebp
 804ba53:	c3                   	ret    

0804ba54 <_ZN8PositionC1Ev>:
 804ba54:	55                   	push   %ebp
 804ba55:	89 e5                	mov    %esp,%ebp
 804ba57:	8b 45 08             	mov    0x8(%ebp),%eax
 804ba5a:	c7 00 00 00 00 00    	movl   $0x0,(%eax)
 804ba60:	8b 45 08             	mov    0x8(%ebp),%eax
 804ba63:	c7 40 04 00 00 00 00 	movl   $0x0,0x4(%eax)
 804ba6a:	5d                   	pop    %ebp
 804ba6b:	c3                   	ret    

0804ba6c <_ZN8PositionC1Eii>:
 804ba6c:	55                   	push   %ebp
 804ba6d:	89 e5                	mov    %esp,%ebp
 804ba6f:	8b 45 08             	mov    0x8(%ebp),%eax
 804ba72:	8b 55 0c             	mov    0xc(%ebp),%edx
 804ba75:	89 10                	mov    %edx,(%eax)
 804ba77:	8b 45 08             	mov    0x8(%ebp),%eax
 804ba7a:	8b 55 10             	mov    0x10(%ebp),%edx
 804ba7d:	89 50 04             	mov    %edx,0x4(%eax)
 804ba80:	5d                   	pop    %ebp
 804ba81:	c3                   	ret    

0804ba82 <_ZN8Position4setXEi>:
 804ba82:	55                   	push   %ebp
 804ba83:	89 e5                	mov    %esp,%ebp
 804ba85:	8b 45 08             	mov    0x8(%ebp),%eax
 804ba88:	8b 55 0c             	mov    0xc(%ebp),%edx
 804ba8b:	89 10                	mov    %edx,(%eax)
 804ba8d:	5d                   	pop    %ebp
 804ba8e:	c3                   	ret    
 804ba8f:	90                   	nop

0804ba90 <_ZN8Position4setYEi>:
 804ba90:	55                   	push   %ebp
 804ba91:	89 e5                	mov    %esp,%ebp
 804ba93:	8b 45 08             	mov    0x8(%ebp),%eax
 804ba96:	8b 55 0c             	mov    0xc(%ebp),%edx
 804ba99:	89 50 04             	mov    %edx,0x4(%eax)
 804ba9c:	5d                   	pop    %ebp
 804ba9d:	c3                   	ret    

0804ba9e <_ZN8Position4getXEv>:
 804ba9e:	55                   	push   %ebp
 804ba9f:	89 e5                	mov    %esp,%ebp
 804baa1:	8b 45 08             	mov    0x8(%ebp),%eax
 804baa4:	8b 00                	mov    (%eax),%eax
 804baa6:	5d                   	pop    %ebp
 804baa7:	c3                   	ret    

0804baa8 <_ZN8Position4getYEv>:
 804baa8:	55                   	push   %ebp
 804baa9:	89 e5                	mov    %esp,%ebp
 804baab:	8b 45 08             	mov    0x8(%ebp),%eax
 804baae:	8b 40 04             	mov    0x4(%eax),%eax
 804bab1:	5d                   	pop    %ebp
 804bab2:	c3                   	ret    
 804bab3:	90                   	nop

0804bab4 <_ZN8PositionD1Ev>:
 804bab4:	55                   	push   %ebp
 804bab5:	89 e5                	mov    %esp,%ebp
 804bab7:	5d                   	pop    %ebp
 804bab8:	c3                   	ret    
 804bab9:	90                   	nop
 804baba:	90                   	nop
 804babb:	90                   	nop

0804babc <_ZN6ObjectC1Ev>:
 804babc:	55                   	push   %ebp
 804babd:	89 e5                	mov    %esp,%ebp
 804babf:	57                   	push   %edi
 804bac0:	56                   	push   %esi
 804bac1:	53                   	push   %ebx
 804bac2:	83 ec 2c             	sub    $0x2c,%esp
 804bac5:	8b 45 08             	mov    0x8(%ebp),%eax
 804bac8:	c7 00 f0 db 04 08    	movl   $0x804dbf0,(%eax)
 804bace:	8b 45 08             	mov    0x8(%ebp),%eax
 804bad1:	8d 70 08             	lea    0x8(%eax),%esi
 804bad4:	89 f7                	mov    %esi,%edi
 804bad6:	bb 63 00 00 00       	mov    $0x63,%ebx
 804badb:	eb 0e                	jmp    804baeb <_ZN6ObjectC1Ev+0x2f>
 804badd:	89 3c 24             	mov    %edi,(%esp)
 804bae0:	e8 3b d1 ff ff       	call   8048c20 <_ZNSsC1Ev@plt>
 804bae5:	83 c7 04             	add    $0x4,%edi
 804bae8:	83 eb 01             	sub    $0x1,%ebx
 804baeb:	83 fb ff             	cmp    $0xffffffff,%ebx
 804baee:	0f 95 c0             	setne  %al
 804baf1:	84 c0                	test   %al,%al
 804baf3:	75 e8                	jne    804badd <_ZN6ObjectC1Ev+0x21>
 804baf5:	8b 45 08             	mov    0x8(%ebp),%eax
 804baf8:	05 98 01 00 00       	add    $0x198,%eax
 804bafd:	89 04 24             	mov    %eax,(%esp)
 804bb00:	e8 4f ff ff ff       	call   804ba54 <_ZN8PositionC1Ev>
 804bb05:	8b 45 08             	mov    0x8(%ebp),%eax
 804bb08:	05 a0 01 00 00       	add    $0x1a0,%eax
 804bb0d:	89 04 24             	mov    %eax,(%esp)
 804bb10:	e8 0b d1 ff ff       	call   8048c20 <_ZNSsC1Ev@plt>
 804bb15:	8d 45 e0             	lea    -0x20(%ebp),%eax
 804bb18:	89 04 24             	mov    %eax,(%esp)
 804bb1b:	e8 34 ff ff ff       	call   804ba54 <_ZN8PositionC1Ev>
 804bb20:	8b 45 08             	mov    0x8(%ebp),%eax
 804bb23:	8b 55 e0             	mov    -0x20(%ebp),%edx
 804bb26:	89 90 98 01 00 00    	mov    %edx,0x198(%eax)
 804bb2c:	8b 55 e4             	mov    -0x1c(%ebp),%edx
 804bb2f:	89 90 9c 01 00 00    	mov    %edx,0x19c(%eax)
 804bb35:	8b 45 08             	mov    0x8(%ebp),%eax
 804bb38:	05 a0 01 00 00       	add    $0x1a0,%eax
 804bb3d:	c7 44 24 04 b8 db 04 	movl   $0x804dbb8,0x4(%esp)
 804bb44:	08 
 804bb45:	89 04 24             	mov    %eax,(%esp)
 804bb48:	e8 c3 d0 ff ff       	call   8048c10 <_ZNSsaSEPKc@plt>
 804bb4d:	8b 45 08             	mov    0x8(%ebp),%eax
 804bb50:	d9 ee                	fldz   
 804bb52:	dd 98 a8 01 00 00    	fstpl  0x1a8(%eax)
 804bb58:	8b 45 08             	mov    0x8(%ebp),%eax
 804bb5b:	d9 ee                	fldz   
 804bb5d:	dd 98 b8 01 00 00    	fstpl  0x1b8(%eax)
 804bb63:	8b 45 08             	mov    0x8(%ebp),%eax
 804bb66:	d9 ee                	fldz   
 804bb68:	dd 98 b0 01 00 00    	fstpl  0x1b0(%eax)
 804bb6e:	8b 45 08             	mov    0x8(%ebp),%eax
 804bb71:	d9 ee                	fldz   
 804bb73:	dd 98 c0 01 00 00    	fstpl  0x1c0(%eax)
 804bb79:	8b 45 08             	mov    0x8(%ebp),%eax
 804bb7c:	c6 80 c8 01 00 00 2e 	movb   $0x2e,0x1c8(%eax)
 804bb83:	8b 45 08             	mov    0x8(%ebp),%eax
 804bb86:	c7 80 cc 01 00 00 02 	movl   $0x2,0x1cc(%eax)
 804bb8d:	00 00 00 
 804bb90:	8b 45 08             	mov    0x8(%ebp),%eax
 804bb93:	c7 40 04 00 00 00 00 	movl   $0x0,0x4(%eax)
 804bb9a:	8d 45 e0             	lea    -0x20(%ebp),%eax
 804bb9d:	89 04 24             	mov    %eax,(%esp)
 804bba0:	e8 0f ff ff ff       	call   804bab4 <_ZN8PositionD1Ev>
 804bba5:	e9 9d 00 00 00       	jmp    804bc47 <_ZN6ObjectC1Ev+0x18b>
 804bbaa:	89 c7                	mov    %eax,%edi
 804bbac:	85 f6                	test   %esi,%esi
 804bbae:	74 1e                	je     804bbce <_ZN6ObjectC1Ev+0x112>
 804bbb0:	b8 63 00 00 00       	mov    $0x63,%eax
 804bbb5:	29 d8                	sub    %ebx,%eax
 804bbb7:	c1 e0 02             	shl    $0x2,%eax
 804bbba:	8d 1c 06             	lea    (%esi,%eax,1),%ebx
 804bbbd:	39 f3                	cmp    %esi,%ebx
 804bbbf:	74 0d                	je     804bbce <_ZN6ObjectC1Ev+0x112>
 804bbc1:	83 eb 04             	sub    $0x4,%ebx
 804bbc4:	89 1c 24             	mov    %ebx,(%esp)
 804bbc7:	e8 74 d1 ff ff       	call   8048d40 <_ZNSsD1Ev@plt>
 804bbcc:	eb ef                	jmp    804bbbd <_ZN6ObjectC1Ev+0x101>
 804bbce:	89 f8                	mov    %edi,%eax
 804bbd0:	89 04 24             	mov    %eax,(%esp)
 804bbd3:	e8 e8 d2 ff ff       	call   8048ec0 <_Unwind_Resume@plt>
 804bbd8:	89 c3                	mov    %eax,%ebx
 804bbda:	8d 45 e0             	lea    -0x20(%ebp),%eax
 804bbdd:	89 04 24             	mov    %eax,(%esp)
 804bbe0:	e8 cf fe ff ff       	call   804bab4 <_ZN8PositionD1Ev>
 804bbe5:	eb 02                	jmp    804bbe9 <_ZN6ObjectC1Ev+0x12d>
 804bbe7:	89 c3                	mov    %eax,%ebx
 804bbe9:	8b 45 08             	mov    0x8(%ebp),%eax
 804bbec:	05 a0 01 00 00       	add    $0x1a0,%eax
 804bbf1:	89 04 24             	mov    %eax,(%esp)
 804bbf4:	e8 47 d1 ff ff       	call   8048d40 <_ZNSsD1Ev@plt>
 804bbf9:	eb 02                	jmp    804bbfd <_ZN6ObjectC1Ev+0x141>
 804bbfb:	89 c3                	mov    %eax,%ebx
 804bbfd:	8b 45 08             	mov    0x8(%ebp),%eax
 804bc00:	05 98 01 00 00       	add    $0x198,%eax
 804bc05:	89 04 24             	mov    %eax,(%esp)
 804bc08:	e8 a7 fe ff ff       	call   804bab4 <_ZN8PositionD1Ev>
 804bc0d:	89 de                	mov    %ebx,%esi
 804bc0f:	eb 02                	jmp    804bc13 <_ZN6ObjectC1Ev+0x157>
 804bc11:	89 c6                	mov    %eax,%esi
 804bc13:	8b 45 08             	mov    0x8(%ebp),%eax
 804bc16:	83 c0 08             	add    $0x8,%eax
 804bc19:	85 c0                	test   %eax,%eax
 804bc1b:	74 20                	je     804bc3d <_ZN6ObjectC1Ev+0x181>
 804bc1d:	8b 45 08             	mov    0x8(%ebp),%eax
 804bc20:	8d 98 98 01 00 00    	lea    0x198(%eax),%ebx
 804bc26:	8b 45 08             	mov    0x8(%ebp),%eax
 804bc29:	83 c0 08             	add    $0x8,%eax
 804bc2c:	39 c3                	cmp    %eax,%ebx
 804bc2e:	74 0d                	je     804bc3d <_ZN6ObjectC1Ev+0x181>
 804bc30:	83 eb 04             	sub    $0x4,%ebx
 804bc33:	89 1c 24             	mov    %ebx,(%esp)
 804bc36:	e8 05 d1 ff ff       	call   8048d40 <_ZNSsD1Ev@plt>
 804bc3b:	eb e9                	jmp    804bc26 <_ZN6ObjectC1Ev+0x16a>
 804bc3d:	89 f0                	mov    %esi,%eax
 804bc3f:	89 04 24             	mov    %eax,(%esp)
 804bc42:	e8 79 d2 ff ff       	call   8048ec0 <_Unwind_Resume@plt>
 804bc47:	83 c4 2c             	add    $0x2c,%esp
 804bc4a:	5b                   	pop    %ebx
 804bc4b:	5e                   	pop    %esi
 804bc4c:	5f                   	pop    %edi
 804bc4d:	5d                   	pop    %ebp
 804bc4e:	c3                   	ret    
 804bc4f:	90                   	nop

0804bc50 <_ZN6ObjectD1Ev>:
 804bc50:	55                   	push   %ebp
 804bc51:	89 e5                	mov    %esp,%ebp
 804bc53:	56                   	push   %esi
 804bc54:	53                   	push   %ebx
 804bc55:	83 ec 20             	sub    $0x20,%esp
 804bc58:	8b 45 08             	mov    0x8(%ebp),%eax
 804bc5b:	c7 00 f0 db 04 08    	movl   $0x804dbf0,(%eax)
 804bc61:	e8 02 ef ff ff       	call   804ab68 <_ZN12WorldManager11getInstanceEv>
 804bc66:	89 45 f4             	mov    %eax,-0xc(%ebp)
 804bc69:	8b 45 08             	mov    0x8(%ebp),%eax
 804bc6c:	89 44 24 04          	mov    %eax,0x4(%esp)
 804bc70:	8b 45 f4             	mov    -0xc(%ebp),%eax
 804bc73:	89 04 24             	mov    %eax,(%esp)
 804bc76:	e8 c7 ef ff ff       	call   804ac42 <_ZN12WorldManager16removeGameObjectEP6Object>
 804bc7b:	c7 45 f0 00 00 00 00 	movl   $0x0,-0x10(%ebp)
 804bc82:	eb 3c                	jmp    804bcc0 <_ZN6ObjectD1Ev+0x70>
 804bc84:	8b 45 f0             	mov    -0x10(%ebp),%eax
 804bc87:	c1 e0 02             	shl    $0x2,%eax
 804bc8a:	03 45 08             	add    0x8(%ebp),%eax
 804bc8d:	83 c0 08             	add    $0x8,%eax
 804bc90:	89 44 24 04          	mov    %eax,0x4(%esp)
 804bc94:	8d 45 ec             	lea    -0x14(%ebp),%eax
 804bc97:	89 04 24             	mov    %eax,(%esp)
 804bc9a:	e8 61 d0 ff ff       	call   8048d00 <_ZNSsC1ERKSs@plt>
 804bc9f:	8d 45 ec             	lea    -0x14(%ebp),%eax
 804bca2:	89 44 24 04          	mov    %eax,0x4(%esp)
 804bca6:	8b 45 08             	mov    0x8(%ebp),%eax
 804bca9:	89 04 24             	mov    %eax,(%esp)
 804bcac:	e8 e7 06 00 00       	call   804c398 <_ZN6Object18unregisterInterestESs>
 804bcb1:	8d 45 ec             	lea    -0x14(%ebp),%eax
 804bcb4:	89 04 24             	mov    %eax,(%esp)
 804bcb7:	e8 84 d0 ff ff       	call   8048d40 <_ZNSsD1Ev@plt>
 804bcbc:	83 45 f0 01          	addl   $0x1,-0x10(%ebp)
 804bcc0:	8b 45 08             	mov    0x8(%ebp),%eax
 804bcc3:	8b 40 04             	mov    0x4(%eax),%eax
 804bcc6:	3b 45 f0             	cmp    -0x10(%ebp),%eax
 804bcc9:	0f 9f c0             	setg   %al
 804bccc:	84 c0                	test   %al,%al
 804bcce:	75 b4                	jne    804bc84 <_ZN6ObjectD1Ev+0x34>
 804bcd0:	8b 45 08             	mov    0x8(%ebp),%eax
 804bcd3:	05 a0 01 00 00       	add    $0x1a0,%eax
 804bcd8:	89 04 24             	mov    %eax,(%esp)
 804bcdb:	e8 60 d0 ff ff       	call   8048d40 <_ZNSsD1Ev@plt>
 804bce0:	8b 45 08             	mov    0x8(%ebp),%eax
 804bce3:	05 98 01 00 00       	add    $0x198,%eax
 804bce8:	89 04 24             	mov    %eax,(%esp)
 804bceb:	e8 c4 fd ff ff       	call   804bab4 <_ZN8PositionD1Ev>
 804bcf0:	8b 45 08             	mov    0x8(%ebp),%eax
 804bcf3:	83 c0 08             	add    $0x8,%eax
 804bcf6:	85 c0                	test   %eax,%eax
 804bcf8:	74 20                	je     804bd1a <_ZN6ObjectD1Ev+0xca>
 804bcfa:	8b 45 08             	mov    0x8(%ebp),%eax
 804bcfd:	8d 98 98 01 00 00    	lea    0x198(%eax),%ebx
 804bd03:	8b 45 08             	mov    0x8(%ebp),%eax
 804bd06:	83 c0 08             	add    $0x8,%eax
 804bd09:	39 c3                	cmp    %eax,%ebx
 804bd0b:	74 0d                	je     804bd1a <_ZN6ObjectD1Ev+0xca>
 804bd0d:	83 eb 04             	sub    $0x4,%ebx
 804bd10:	89 1c 24             	mov    %ebx,(%esp)
 804bd13:	e8 28 d0 ff ff       	call   8048d40 <_ZNSsD1Ev@plt>
 804bd18:	eb e9                	jmp    804bd03 <_ZN6ObjectD1Ev+0xb3>
 804bd1a:	b8 00 00 00 00       	mov    $0x0,%eax
 804bd1f:	83 e0 01             	and    $0x1,%eax
 804bd22:	84 c0                	test   %al,%al
 804bd24:	74 7c                	je     804bda2 <_ZN6ObjectD1Ev+0x152>
 804bd26:	8b 45 08             	mov    0x8(%ebp),%eax
 804bd29:	89 04 24             	mov    %eax,(%esp)
 804bd2c:	e8 6f cf ff ff       	call   8048ca0 <_ZdlPv@plt>
 804bd31:	eb 6f                	jmp    804bda2 <_ZN6ObjectD1Ev+0x152>
 804bd33:	89 c3                	mov    %eax,%ebx
 804bd35:	8d 45 ec             	lea    -0x14(%ebp),%eax
 804bd38:	89 04 24             	mov    %eax,(%esp)
 804bd3b:	e8 00 d0 ff ff       	call   8048d40 <_ZNSsD1Ev@plt>
 804bd40:	eb 02                	jmp    804bd44 <_ZN6ObjectD1Ev+0xf4>
 804bd42:	89 c3                	mov    %eax,%ebx
 804bd44:	8b 45 08             	mov    0x8(%ebp),%eax
 804bd47:	05 a0 01 00 00       	add    $0x1a0,%eax
 804bd4c:	89 04 24             	mov    %eax,(%esp)
 804bd4f:	e8 ec cf ff ff       	call   8048d40 <_ZNSsD1Ev@plt>
 804bd54:	eb 02                	jmp    804bd58 <_ZN6ObjectD1Ev+0x108>
 804bd56:	89 c3                	mov    %eax,%ebx
 804bd58:	8b 45 08             	mov    0x8(%ebp),%eax
 804bd5b:	05 98 01 00 00       	add    $0x198,%eax
 804bd60:	89 04 24             	mov    %eax,(%esp)
 804bd63:	e8 4c fd ff ff       	call   804bab4 <_ZN8PositionD1Ev>
 804bd68:	89 de                	mov    %ebx,%esi
 804bd6a:	eb 02                	jmp    804bd6e <_ZN6ObjectD1Ev+0x11e>
 804bd6c:	89 c6                	mov    %eax,%esi
 804bd6e:	8b 45 08             	mov    0x8(%ebp),%eax
 804bd71:	83 c0 08             	add    $0x8,%eax
 804bd74:	85 c0                	test   %eax,%eax
 804bd76:	74 20                	je     804bd98 <_ZN6ObjectD1Ev+0x148>
 804bd78:	8b 45 08             	mov    0x8(%ebp),%eax
 804bd7b:	8d 98 98 01 00 00    	lea    0x198(%eax),%ebx
 804bd81:	8b 45 08             	mov    0x8(%ebp),%eax
 804bd84:	83 c0 08             	add    $0x8,%eax
 804bd87:	39 c3                	cmp    %eax,%ebx
 804bd89:	74 0d                	je     804bd98 <_ZN6ObjectD1Ev+0x148>
 804bd8b:	83 eb 04             	sub    $0x4,%ebx
 804bd8e:	89 1c 24             	mov    %ebx,(%esp)
 804bd91:	e8 aa cf ff ff       	call   8048d40 <_ZNSsD1Ev@plt>
 804bd96:	eb e9                	jmp    804bd81 <_ZN6ObjectD1Ev+0x131>
 804bd98:	89 f0                	mov    %esi,%eax
 804bd9a:	89 04 24             	mov    %eax,(%esp)
 804bd9d:	e8 1e d1 ff ff       	call   8048ec0 <_Unwind_Resume@plt>
 804bda2:	83 c4 20             	add    $0x20,%esp
 804bda5:	5b                   	pop    %ebx
 804bda6:	5e                   	pop    %esi
 804bda7:	5d                   	pop    %ebp
 804bda8:	c3                   	ret    
 804bda9:	90                   	nop

0804bdaa <_ZN6ObjectD0Ev>:
 804bdaa:	55                   	push   %ebp
 804bdab:	89 e5                	mov    %esp,%ebp
 804bdad:	83 ec 18             	sub    $0x18,%esp
 804bdb0:	8b 45 08             	mov    0x8(%ebp),%eax
 804bdb3:	89 04 24             	mov    %eax,(%esp)
 804bdb6:	e8 95 fe ff ff       	call   804bc50 <_ZN6ObjectD1Ev>
 804bdbb:	8b 45 08             	mov    0x8(%ebp),%eax
 804bdbe:	89 04 24             	mov    %eax,(%esp)
 804bdc1:	e8 da ce ff ff       	call   8048ca0 <_ZdlPv@plt>
 804bdc6:	c9                   	leave  
 804bdc7:	c3                   	ret    

0804bdc8 <_ZN6Object10addToWorldEv>:
 804bdc8:	55                   	push   %ebp
 804bdc9:	89 e5                	mov    %esp,%ebp
 804bdcb:	83 ec 28             	sub    $0x28,%esp
 804bdce:	e8 95 ed ff ff       	call   804ab68 <_ZN12WorldManager11getInstanceEv>
 804bdd3:	89 45 f4             	mov    %eax,-0xc(%ebp)
 804bdd6:	8b 45 08             	mov    0x8(%ebp),%eax
 804bdd9:	89 44 24 04          	mov    %eax,0x4(%esp)
 804bddd:	8b 45 f4             	mov    -0xc(%ebp),%eax
 804bde0:	89 04 24             	mov    %eax,(%esp)
 804bde3:	e8 0e ee ff ff       	call   804abf6 <_ZN12WorldManager16insertGameObjectEP6Object>
 804bde8:	b8 00 00 00 00       	mov    $0x0,%eax
 804bded:	c9                   	leave  
 804bdee:	c3                   	ret    
 804bdef:	90                   	nop

0804bdf0 <_ZN6Object7setTypeESs>:
 804bdf0:	55                   	push   %ebp
 804bdf1:	89 e5                	mov    %esp,%ebp
 804bdf3:	83 ec 18             	sub    $0x18,%esp
 804bdf6:	8b 45 08             	mov    0x8(%ebp),%eax
 804bdf9:	8d 90 a0 01 00 00    	lea    0x1a0(%eax),%edx
 804bdff:	8b 45 0c             	mov    0xc(%ebp),%eax
 804be02:	89 44 24 04          	mov    %eax,0x4(%esp)
 804be06:	89 14 24             	mov    %edx,(%esp)
 804be09:	e8 e2 d0 ff ff       	call   8048ef0 <_ZNSsaSERKSs@plt>
 804be0e:	c9                   	leave  
 804be0f:	c3                   	ret    

0804be10 <_ZN6Object7getTypeEv>:
 804be10:	55                   	push   %ebp
 804be11:	89 e5                	mov    %esp,%ebp
 804be13:	83 ec 18             	sub    $0x18,%esp
 804be16:	8b 45 0c             	mov    0xc(%ebp),%eax
 804be19:	05 a0 01 00 00       	add    $0x1a0,%eax
 804be1e:	89 44 24 04          	mov    %eax,0x4(%esp)
 804be22:	8b 45 08             	mov    0x8(%ebp),%eax
 804be25:	89 04 24             	mov    %eax,(%esp)
 804be28:	e8 d3 ce ff ff       	call   8048d00 <_ZNSsC1ERKSs@plt>
 804be2d:	8b 45 08             	mov    0x8(%ebp),%eax
 804be30:	c9                   	leave  
 804be31:	c2 04 00             	ret    $0x4

0804be34 <_ZN6Object7isSolidEv>:
 804be34:	55                   	push   %ebp
 804be35:	89 e5                	mov    %esp,%ebp
 804be37:	b8 01 00 00 00       	mov    $0x1,%eax
 804be3c:	5d                   	pop    %ebp
 804be3d:	c3                   	ret    

0804be3e <_ZN6Object12getSolidnessEv>:
 804be3e:	55                   	push   %ebp
 804be3f:	89 e5                	mov    %esp,%ebp
 804be41:	8b 45 08             	mov    0x8(%ebp),%eax
 804be44:	8b 80 cc 01 00 00    	mov    0x1cc(%eax),%eax
 804be4a:	5d                   	pop    %ebp
 804be4b:	c3                   	ret    

0804be4c <_ZN6Object12setSolidnessEi>:
 804be4c:	55                   	push   %ebp
 804be4d:	89 e5                	mov    %esp,%ebp
 804be4f:	8b 45 08             	mov    0x8(%ebp),%eax
 804be52:	8b 55 0c             	mov    0xc(%ebp),%edx
 804be55:	89 90 cc 01 00 00    	mov    %edx,0x1cc(%eax)
 804be5b:	5d                   	pop    %ebp
 804be5c:	c3                   	ret    
 804be5d:	90                   	nop

0804be5e <_ZN6Object9setSpriteEc>:
 804be5e:	55                   	push   %ebp
 804be5f:	89 e5                	mov    %esp,%ebp
 804be61:	83 ec 04             	sub    $0x4,%esp
 804be64:	8b 45 0c             	mov    0xc(%ebp),%eax
 804be67:	88 45 fc             	mov    %al,-0x4(%ebp)
 804be6a:	8b 45 08             	mov    0x8(%ebp),%eax
 804be6d:	0f b6 55 fc          	movzbl -0x4(%ebp),%edx
 804be71:	88 90 c8 01 00 00    	mov    %dl,0x1c8(%eax)
 804be77:	c9                   	leave  
 804be78:	c3                   	ret    
 804be79:	90                   	nop

0804be7a <_ZN6Object9getSpriteEv>:
 804be7a:	55                   	push   %ebp
 804be7b:	89 e5                	mov    %esp,%ebp
 804be7d:	8b 45 08             	mov    0x8(%ebp),%eax
 804be80:	0f b6 80 c8 01 00 00 	movzbl 0x1c8(%eax),%eax
 804be87:	5d                   	pop    %ebp
 804be88:	c3                   	ret    
 804be89:	90                   	nop

0804be8a <_ZN6Object11setPositionE8Position>:
 804be8a:	55                   	push   %ebp
 804be8b:	89 e5                	mov    %esp,%ebp
 804be8d:	8b 45 08             	mov    0x8(%ebp),%eax
 804be90:	8b 55 0c             	mov    0xc(%ebp),%edx
 804be93:	8b 0a                	mov    (%edx),%ecx
 804be95:	89 88 98 01 00 00    	mov    %ecx,0x198(%eax)
 804be9b:	8b 52 04             	mov    0x4(%edx),%edx
 804be9e:	89 90 9c 01 00 00    	mov    %edx,0x19c(%eax)
 804bea4:	5d                   	pop    %ebp
 804bea5:	c3                   	ret    

0804bea6 <_ZN6Object11getPositionEv>:
 804bea6:	55                   	push   %ebp
 804bea7:	89 e5                	mov    %esp,%ebp
 804bea9:	8b 45 08             	mov    0x8(%ebp),%eax
 804beac:	8b 55 0c             	mov    0xc(%ebp),%edx
 804beaf:	8b 8a 98 01 00 00    	mov    0x198(%edx),%ecx
 804beb5:	89 08                	mov    %ecx,(%eax)
 804beb7:	8b 92 9c 01 00 00    	mov    0x19c(%edx),%edx
 804bebd:	89 50 04             	mov    %edx,0x4(%eax)
 804bec0:	8b 45 08             	mov    0x8(%ebp),%eax
 804bec3:	5d                   	pop    %ebp
 804bec4:	c2 04 00             	ret    $0x4
 804bec7:	90                   	nop

0804bec8 <_ZN6Object12getXVelocityEv>:
 804bec8:	55                   	push   %ebp
 804bec9:	89 e5                	mov    %esp,%ebp
 804becb:	8b 45 08             	mov    0x8(%ebp),%eax
 804bece:	dd 80 a8 01 00 00    	fldl   0x1a8(%eax)
 804bed4:	5d                   	pop    %ebp
 804bed5:	c3                   	ret    

0804bed6 <_ZN6Object12setXVelocityEd>:
 804bed6:	55                   	push   %ebp
 804bed7:	89 e5                	mov    %esp,%ebp
 804bed9:	83 ec 08             	sub    $0x8,%esp
 804bedc:	8b 45 0c             	mov    0xc(%ebp),%eax
 804bedf:	89 45 f8             	mov    %eax,-0x8(%ebp)
 804bee2:	8b 45 10             	mov    0x10(%ebp),%eax
 804bee5:	89 45 fc             	mov    %eax,-0x4(%ebp)
 804bee8:	8b 45 08             	mov    0x8(%ebp),%eax
 804beeb:	dd 45 f8             	fldl   -0x8(%ebp)
 804beee:	dd 98 a8 01 00 00    	fstpl  0x1a8(%eax)
 804bef4:	8b 45 08             	mov    0x8(%ebp),%eax
 804bef7:	d9 e8                	fld1   
 804bef9:	dd 98 b0 01 00 00    	fstpl  0x1b0(%eax)
 804beff:	c9                   	leave  
 804bf00:	c3                   	ret    
 804bf01:	90                   	nop

0804bf02 <_ZN6Object12getYVelocityEv>:
 804bf02:	55                   	push   %ebp
 804bf03:	89 e5                	mov    %esp,%ebp
 804bf05:	8b 45 08             	mov    0x8(%ebp),%eax
 804bf08:	dd 80 b8 01 00 00    	fldl   0x1b8(%eax)
 804bf0e:	5d                   	pop    %ebp
 804bf0f:	c3                   	ret    

0804bf10 <_ZN6Object12setYVelocityEd>:
 804bf10:	55                   	push   %ebp
 804bf11:	89 e5                	mov    %esp,%ebp
 804bf13:	83 ec 08             	sub    $0x8,%esp
 804bf16:	8b 45 0c             	mov    0xc(%ebp),%eax
 804bf19:	89 45 f8             	mov    %eax,-0x8(%ebp)
 804bf1c:	8b 45 10             	mov    0x10(%ebp),%eax
 804bf1f:	89 45 fc             	mov    %eax,-0x4(%ebp)
 804bf22:	8b 45 08             	mov    0x8(%ebp),%eax
 804bf25:	dd 45 f8             	fldl   -0x8(%ebp)
 804bf28:	dd 98 b8 01 00 00    	fstpl  0x1b8(%eax)
 804bf2e:	8b 45 08             	mov    0x8(%ebp),%eax
 804bf31:	d9 e8                	fld1   
 804bf33:	dd 98 c0 01 00 00    	fstpl  0x1c0(%eax)
 804bf39:	c9                   	leave  
 804bf3a:	c3                   	ret    
 804bf3b:	90                   	nop

0804bf3c <_ZN6Object12velocityStepEPdS0_>:
 804bf3c:	55                   	push   %ebp
 804bf3d:	89 e5                	mov    %esp,%ebp
 804bf3f:	83 ec 38             	sub    $0x38,%esp
 804bf42:	8b 45 0c             	mov    0xc(%ebp),%eax
 804bf45:	dd 00                	fldl   (%eax)
 804bf47:	d9 ee                	fldz   
 804bf49:	df e9                	fucomip %st(1),%st
 804bf4b:	7a 12                	jp     804bf5f <_ZN6Object12velocityStepEPdS0_+0x23>
 804bf4d:	d9 ee                	fldz   
 804bf4f:	df e9                	fucomip %st(1),%st
 804bf51:	dd d8                	fstp   %st(0)
 804bf53:	75 0c                	jne    804bf61 <_ZN6Object12velocityStepEPdS0_+0x25>
 804bf55:	b8 00 00 00 00       	mov    $0x0,%eax
 804bf5a:	e9 b3 00 00 00       	jmp    804c012 <_ZN6Object12velocityStepEPdS0_+0xd6>
 804bf5f:	dd d8                	fstp   %st(0)
 804bf61:	8b 45 10             	mov    0x10(%ebp),%eax
 804bf64:	dd 00                	fldl   (%eax)
 804bf66:	8b 45 0c             	mov    0xc(%ebp),%eax
 804bf69:	dd 00                	fldl   (%eax)
 804bf6b:	d9 e1                	fabs   
 804bf6d:	de e9                	fsubrp %st,%st(1)
 804bf6f:	8b 45 10             	mov    0x10(%ebp),%eax
 804bf72:	dd 18                	fstpl  (%eax)
 804bf74:	8b 45 10             	mov    0x10(%ebp),%eax
 804bf77:	dd 00                	fldl   (%eax)
 804bf79:	d9 ee                	fldz   
 804bf7b:	d9 c9                	fxch   %st(1)
 804bf7d:	df e9                	fucomip %st(1),%st
 804bf7f:	dd d8                	fstp   %st(0)
 804bf81:	0f 97 c0             	seta   %al
 804bf84:	84 c0                	test   %al,%al
 804bf86:	74 0a                	je     804bf92 <_ZN6Object12velocityStepEPdS0_+0x56>
 804bf88:	b8 00 00 00 00       	mov    $0x0,%eax
 804bf8d:	e9 80 00 00 00       	jmp    804c012 <_ZN6Object12velocityStepEPdS0_+0xd6>
 804bf92:	8b 45 10             	mov    0x10(%ebp),%eax
 804bf95:	dd 00                	fldl   (%eax)
 804bf97:	d9 e8                	fld1   
 804bf99:	de e1                	fsubp  %st,%st(1)
 804bf9b:	dd 1c 24             	fstpl  (%esp)
 804bf9e:	e8 4d cd ff ff       	call   8048cf0 <floor@plt>
 804bfa3:	dd 5d f0             	fstpl  -0x10(%ebp)
 804bfa6:	8b 45 10             	mov    0x10(%ebp),%eax
 804bfa9:	dd 00                	fldl   (%eax)
 804bfab:	d9 e8                	fld1   
 804bfad:	dd 5c 24 08          	fstpl  0x8(%esp)
 804bfb1:	dd 1c 24             	fstpl  (%esp)
 804bfb4:	e8 47 cc ff ff       	call   8048c00 <fmod@plt>
 804bfb9:	d9 e8                	fld1   
 804bfbb:	de c1                	faddp  %st,%st(1)
 804bfbd:	8b 45 10             	mov    0x10(%ebp),%eax
 804bfc0:	dd 18                	fstpl  (%eax)
 804bfc2:	8b 45 0c             	mov    0xc(%ebp),%eax
 804bfc5:	dd 00                	fldl   (%eax)
 804bfc7:	d9 ee                	fldz   
 804bfc9:	d9 c9                	fxch   %st(1)
 804bfcb:	df e9                	fucomip %st(1),%st
 804bfcd:	dd d8                	fstp   %st(0)
 804bfcf:	0f 97 c0             	seta   %al
 804bfd2:	84 c0                	test   %al,%al
 804bfd4:	74 1e                	je     804bff4 <_ZN6Object12velocityStepEPdS0_+0xb8>
 804bfd6:	dd 45 f0             	fldl   -0x10(%ebp)
 804bfd9:	d9 7d e6             	fnstcw -0x1a(%ebp)
 804bfdc:	0f b7 45 e6          	movzwl -0x1a(%ebp),%eax
 804bfe0:	b4 0c                	mov    $0xc,%ah
 804bfe2:	66 89 45 e4          	mov    %ax,-0x1c(%ebp)
 804bfe6:	d9 6d e4             	fldcw  -0x1c(%ebp)
 804bfe9:	db 5d e0             	fistpl -0x20(%ebp)
 804bfec:	d9 6d e6             	fldcw  -0x1a(%ebp)
 804bfef:	8b 45 e0             	mov    -0x20(%ebp),%eax
 804bff2:	eb 1e                	jmp    804c012 <_ZN6Object12velocityStepEPdS0_+0xd6>
 804bff4:	dd 45 f0             	fldl   -0x10(%ebp)
 804bff7:	d9 7d e6             	fnstcw -0x1a(%ebp)
 804bffa:	0f b7 45 e6          	movzwl -0x1a(%ebp),%eax
 804bffe:	b4 0c                	mov    $0xc,%ah
 804c000:	66 89 45 e4          	mov    %ax,-0x1c(%ebp)
 804c004:	d9 6d e4             	fldcw  -0x1c(%ebp)
 804c007:	db 5d e0             	fistpl -0x20(%ebp)
 804c00a:	d9 6d e6             	fldcw  -0x1a(%ebp)
 804c00d:	8b 45 e0             	mov    -0x20(%ebp),%eax
 804c010:	f7 d8                	neg    %eax
 804c012:	c9                   	leave  
 804c013:	c3                   	ret    

0804c014 <_ZN6Object16getXVelocityStepEv>:
 804c014:	55                   	push   %ebp
 804c015:	89 e5                	mov    %esp,%ebp
 804c017:	83 ec 18             	sub    $0x18,%esp
 804c01a:	8b 45 08             	mov    0x8(%ebp),%eax
 804c01d:	8d 90 b0 01 00 00    	lea    0x1b0(%eax),%edx
 804c023:	8b 45 08             	mov    0x8(%ebp),%eax
 804c026:	05 a8 01 00 00       	add    $0x1a8,%eax
 804c02b:	89 54 24 08          	mov    %edx,0x8(%esp)
 804c02f:	89 44 24 04          	mov    %eax,0x4(%esp)
 804c033:	8b 45 08             	mov    0x8(%ebp),%eax
 804c036:	89 04 24             	mov    %eax,(%esp)
 804c039:	e8 fe fe ff ff       	call   804bf3c <_ZN6Object12velocityStepEPdS0_>
 804c03e:	c9                   	leave  
 804c03f:	c3                   	ret    

0804c040 <_ZN6Object16getYVelocityStepEv>:
 804c040:	55                   	push   %ebp
 804c041:	89 e5                	mov    %esp,%ebp
 804c043:	83 ec 18             	sub    $0x18,%esp
 804c046:	8b 45 08             	mov    0x8(%ebp),%eax
 804c049:	8d 90 c0 01 00 00    	lea    0x1c0(%eax),%edx
 804c04f:	8b 45 08             	mov    0x8(%ebp),%eax
 804c052:	05 b8 01 00 00       	add    $0x1b8,%eax
 804c057:	89 54 24 08          	mov    %edx,0x8(%esp)
 804c05b:	89 44 24 04          	mov    %eax,0x4(%esp)
 804c05f:	8b 45 08             	mov    0x8(%ebp),%eax
 804c062:	89 04 24             	mov    %eax,(%esp)
 804c065:	e8 d2 fe ff ff       	call   804bf3c <_ZN6Object12velocityStepEPdS0_>
 804c06a:	c9                   	leave  
 804c06b:	c3                   	ret    

0804c06c <_ZN6Object12eventHandlerEP5Event>:
 804c06c:	55                   	push   %ebp
 804c06d:	89 e5                	mov    %esp,%ebp
 804c06f:	b8 01 00 00 00       	mov    $0x1,%eax
 804c074:	5d                   	pop    %ebp
 804c075:	c3                   	ret    

0804c076 <_ZN6Object16registerInterestESs>:
 804c076:	55                   	push   %ebp
 804c077:	89 e5                	mov    %esp,%ebp
 804c079:	53                   	push   %ebx
 804c07a:	83 ec 34             	sub    $0x34,%esp
 804c07d:	e8 76 e3 ff ff       	call   804a3f8 <_ZN11GameManager11getInstanceEv>
 804c082:	89 45 f0             	mov    %eax,-0x10(%ebp)
 804c085:	e8 de ea ff ff       	call   804ab68 <_ZN12WorldManager11getInstanceEv>
 804c08a:	89 45 f4             	mov    %eax,-0xc(%ebp)
 804c08d:	8b 45 08             	mov    0x8(%ebp),%eax
 804c090:	8b 40 04             	mov    0x4(%eax),%eax
 804c093:	83 f8 64             	cmp    $0x64,%eax
 804c096:	75 0a                	jne    804c0a2 <_ZN6Object16registerInterestESs+0x2c>
 804c098:	b8 ff ff ff ff       	mov    $0xffffffff,%eax
 804c09d:	e9 65 02 00 00       	jmp    804c307 <_ZN6Object16registerInterestESs+0x291>
 804c0a2:	c7 44 24 04 bf db 04 	movl   $0x804dbbf,0x4(%esp)
 804c0a9:	08 
 804c0aa:	8b 45 0c             	mov    0xc(%ebp),%eax
 804c0ad:	89 04 24             	mov    %eax,(%esp)
 804c0b0:	e8 eb e2 ff ff       	call   804a3a0 <_ZSteqIcSt11char_traitsIcESaIcEEbRKSbIT_T0_T1_EPKS3_>
 804c0b5:	84 c0                	test   %al,%al
 804c0b7:	74 4d                	je     804c106 <_ZN6Object16registerInterestESs+0x90>
 804c0b9:	8b 45 0c             	mov    0xc(%ebp),%eax
 804c0bc:	89 44 24 04          	mov    %eax,0x4(%esp)
 804c0c0:	8d 45 d8             	lea    -0x28(%ebp),%eax
 804c0c3:	89 04 24             	mov    %eax,(%esp)
 804c0c6:	e8 35 cc ff ff       	call   8048d00 <_ZNSsC1ERKSs@plt>
 804c0cb:	8b 45 f4             	mov    -0xc(%ebp),%eax
 804c0ce:	8d 55 d8             	lea    -0x28(%ebp),%edx
 804c0d1:	89 54 24 08          	mov    %edx,0x8(%esp)
 804c0d5:	8b 55 08             	mov    0x8(%ebp),%edx
 804c0d8:	89 54 24 04          	mov    %edx,0x4(%esp)
 804c0dc:	89 04 24             	mov    %eax,(%esp)
 804c0df:	e8 e0 d9 ff ff       	call   8049ac4 <_ZN7Manager16registerInterestEP6ObjectSs>
 804c0e4:	85 c0                	test   %eax,%eax
 804c0e6:	0f 95 c3             	setne  %bl
 804c0e9:	8d 45 d8             	lea    -0x28(%ebp),%eax
 804c0ec:	89 04 24             	mov    %eax,(%esp)
 804c0ef:	e8 4c cc ff ff       	call   8048d40 <_ZNSsD1Ev@plt>
 804c0f4:	84 db                	test   %bl,%bl
 804c0f6:	0f 84 d9 01 00 00    	je     804c2d5 <_ZN6Object16registerInterestESs+0x25f>
 804c0fc:	b8 ff ff ff ff       	mov    $0xffffffff,%eax
 804c101:	e9 01 02 00 00       	jmp    804c307 <_ZN6Object16registerInterestESs+0x291>
 804c106:	c7 44 24 04 c9 db 04 	movl   $0x804dbc9,0x4(%esp)
 804c10d:	08 
 804c10e:	8b 45 0c             	mov    0xc(%ebp),%eax
 804c111:	89 04 24             	mov    %eax,(%esp)
 804c114:	e8 87 e2 ff ff       	call   804a3a0 <_ZSteqIcSt11char_traitsIcESaIcEEbRKSbIT_T0_T1_EPKS3_>
 804c119:	84 c0                	test   %al,%al
 804c11b:	74 4d                	je     804c16a <_ZN6Object16registerInterestESs+0xf4>
 804c11d:	8b 45 0c             	mov    0xc(%ebp),%eax
 804c120:	89 44 24 04          	mov    %eax,0x4(%esp)
 804c124:	8d 45 dc             	lea    -0x24(%ebp),%eax
 804c127:	89 04 24             	mov    %eax,(%esp)
 804c12a:	e8 d1 cb ff ff       	call   8048d00 <_ZNSsC1ERKSs@plt>
 804c12f:	8b 45 f0             	mov    -0x10(%ebp),%eax
 804c132:	8d 55 dc             	lea    -0x24(%ebp),%edx
 804c135:	89 54 24 08          	mov    %edx,0x8(%esp)
 804c139:	8b 55 08             	mov    0x8(%ebp),%edx
 804c13c:	89 54 24 04          	mov    %edx,0x4(%esp)
 804c140:	89 04 24             	mov    %eax,(%esp)
 804c143:	e8 7c d9 ff ff       	call   8049ac4 <_ZN7Manager16registerInterestEP6ObjectSs>
 804c148:	85 c0                	test   %eax,%eax
 804c14a:	0f 95 c3             	setne  %bl
 804c14d:	8d 45 dc             	lea    -0x24(%ebp),%eax
 804c150:	89 04 24             	mov    %eax,(%esp)
 804c153:	e8 e8 cb ff ff       	call   8048d40 <_ZNSsD1Ev@plt>
 804c158:	84 db                	test   %bl,%bl
 804c15a:	0f 84 75 01 00 00    	je     804c2d5 <_ZN6Object16registerInterestESs+0x25f>
 804c160:	b8 ff ff ff ff       	mov    $0xffffffff,%eax
 804c165:	e9 9d 01 00 00       	jmp    804c307 <_ZN6Object16registerInterestESs+0x291>
 804c16a:	c7 44 24 04 d2 db 04 	movl   $0x804dbd2,0x4(%esp)
 804c171:	08 
 804c172:	8b 45 0c             	mov    0xc(%ebp),%eax
 804c175:	89 04 24             	mov    %eax,(%esp)
 804c178:	e8 23 e2 ff ff       	call   804a3a0 <_ZSteqIcSt11char_traitsIcESaIcEEbRKSbIT_T0_T1_EPKS3_>
 804c17d:	84 c0                	test   %al,%al
 804c17f:	74 4d                	je     804c1ce <_ZN6Object16registerInterestESs+0x158>
 804c181:	8b 45 0c             	mov    0xc(%ebp),%eax
 804c184:	89 44 24 04          	mov    %eax,0x4(%esp)
 804c188:	8d 45 e0             	lea    -0x20(%ebp),%eax
 804c18b:	89 04 24             	mov    %eax,(%esp)
 804c18e:	e8 6d cb ff ff       	call   8048d00 <_ZNSsC1ERKSs@plt>
 804c193:	8b 45 f4             	mov    -0xc(%ebp),%eax
 804c196:	8d 55 e0             	lea    -0x20(%ebp),%edx
 804c199:	89 54 24 08          	mov    %edx,0x8(%esp)
 804c19d:	8b 55 08             	mov    0x8(%ebp),%edx
 804c1a0:	89 54 24 04          	mov    %edx,0x4(%esp)
 804c1a4:	89 04 24             	mov    %eax,(%esp)
 804c1a7:	e8 18 d9 ff ff       	call   8049ac4 <_ZN7Manager16registerInterestEP6ObjectSs>
 804c1ac:	85 c0                	test   %eax,%eax
 804c1ae:	0f 95 c3             	setne  %bl
 804c1b1:	8d 45 e0             	lea    -0x20(%ebp),%eax
 804c1b4:	89 04 24             	mov    %eax,(%esp)
 804c1b7:	e8 84 cb ff ff       	call   8048d40 <_ZNSsD1Ev@plt>
 804c1bc:	84 db                	test   %bl,%bl
 804c1be:	0f 84 11 01 00 00    	je     804c2d5 <_ZN6Object16registerInterestESs+0x25f>
 804c1c4:	b8 ff ff ff ff       	mov    $0xffffffff,%eax
 804c1c9:	e9 39 01 00 00       	jmp    804c307 <_ZN6Object16registerInterestESs+0x291>
 804c1ce:	c7 44 24 04 d8 db 04 	movl   $0x804dbd8,0x4(%esp)
 804c1d5:	08 
 804c1d6:	8b 45 0c             	mov    0xc(%ebp),%eax
 804c1d9:	89 04 24             	mov    %eax,(%esp)
 804c1dc:	e8 bf e1 ff ff       	call   804a3a0 <_ZSteqIcSt11char_traitsIcESaIcEEbRKSbIT_T0_T1_EPKS3_>
 804c1e1:	84 c0                	test   %al,%al
 804c1e3:	74 4d                	je     804c232 <_ZN6Object16registerInterestESs+0x1bc>
 804c1e5:	8b 45 0c             	mov    0xc(%ebp),%eax
 804c1e8:	89 44 24 04          	mov    %eax,0x4(%esp)
 804c1ec:	8d 45 e4             	lea    -0x1c(%ebp),%eax
 804c1ef:	89 04 24             	mov    %eax,(%esp)
 804c1f2:	e8 09 cb ff ff       	call   8048d00 <_ZNSsC1ERKSs@plt>
 804c1f7:	8b 45 f4             	mov    -0xc(%ebp),%eax
 804c1fa:	8d 55 e4             	lea    -0x1c(%ebp),%edx
 804c1fd:	89 54 24 08          	mov    %edx,0x8(%esp)
 804c201:	8b 55 08             	mov    0x8(%ebp),%edx
 804c204:	89 54 24 04          	mov    %edx,0x4(%esp)
 804c208:	89 04 24             	mov    %eax,(%esp)
 804c20b:	e8 b4 d8 ff ff       	call   8049ac4 <_ZN7Manager16registerInterestEP6ObjectSs>
 804c210:	85 c0                	test   %eax,%eax
 804c212:	0f 95 c3             	setne  %bl
 804c215:	8d 45 e4             	lea    -0x1c(%ebp),%eax
 804c218:	89 04 24             	mov    %eax,(%esp)
 804c21b:	e8 20 cb ff ff       	call   8048d40 <_ZNSsD1Ev@plt>
 804c220:	84 db                	test   %bl,%bl
 804c222:	0f 84 ad 00 00 00    	je     804c2d5 <_ZN6Object16registerInterestESs+0x25f>
 804c228:	b8 ff ff ff ff       	mov    $0xffffffff,%eax
 804c22d:	e9 d5 00 00 00       	jmp    804c307 <_ZN6Object16registerInterestESs+0x291>
 804c232:	c7 44 24 04 dc db 04 	movl   $0x804dbdc,0x4(%esp)
 804c239:	08 
 804c23a:	8b 45 0c             	mov    0xc(%ebp),%eax
 804c23d:	89 04 24             	mov    %eax,(%esp)
 804c240:	e8 5b e1 ff ff       	call   804a3a0 <_ZSteqIcSt11char_traitsIcESaIcEEbRKSbIT_T0_T1_EPKS3_>
 804c245:	84 c0                	test   %al,%al
 804c247:	74 46                	je     804c28f <_ZN6Object16registerInterestESs+0x219>
 804c249:	8b 45 0c             	mov    0xc(%ebp),%eax
 804c24c:	89 44 24 04          	mov    %eax,0x4(%esp)
 804c250:	8d 45 e8             	lea    -0x18(%ebp),%eax
 804c253:	89 04 24             	mov    %eax,(%esp)
 804c256:	e8 a5 ca ff ff       	call   8048d00 <_ZNSsC1ERKSs@plt>
 804c25b:	8b 45 f4             	mov    -0xc(%ebp),%eax
 804c25e:	8d 55 e8             	lea    -0x18(%ebp),%edx
 804c261:	89 54 24 08          	mov    %edx,0x8(%esp)
 804c265:	8b 55 08             	mov    0x8(%ebp),%edx
 804c268:	89 54 24 04          	mov    %edx,0x4(%esp)
 804c26c:	89 04 24             	mov    %eax,(%esp)
 804c26f:	e8 50 d8 ff ff       	call   8049ac4 <_ZN7Manager16registerInterestEP6ObjectSs>
 804c274:	85 c0                	test   %eax,%eax
 804c276:	0f 95 c3             	setne  %bl
 804c279:	8d 45 e8             	lea    -0x18(%ebp),%eax
 804c27c:	89 04 24             	mov    %eax,(%esp)
 804c27f:	e8 bc ca ff ff       	call   8048d40 <_ZNSsD1Ev@plt>
 804c284:	84 db                	test   %bl,%bl
 804c286:	74 4d                	je     804c2d5 <_ZN6Object16registerInterestESs+0x25f>
 804c288:	b8 ff ff ff ff       	mov    $0xffffffff,%eax
 804c28d:	eb 78                	jmp    804c307 <_ZN6Object16registerInterestESs+0x291>
 804c28f:	8b 45 0c             	mov    0xc(%ebp),%eax
 804c292:	89 44 24 04          	mov    %eax,0x4(%esp)
 804c296:	8d 45 ec             	lea    -0x14(%ebp),%eax
 804c299:	89 04 24             	mov    %eax,(%esp)
 804c29c:	e8 5f ca ff ff       	call   8048d00 <_ZNSsC1ERKSs@plt>
 804c2a1:	8b 45 f4             	mov    -0xc(%ebp),%eax
 804c2a4:	8d 55 ec             	lea    -0x14(%ebp),%edx
 804c2a7:	89 54 24 08          	mov    %edx,0x8(%esp)
 804c2ab:	8b 55 08             	mov    0x8(%ebp),%edx
 804c2ae:	89 54 24 04          	mov    %edx,0x4(%esp)
 804c2b2:	89 04 24             	mov    %eax,(%esp)
 804c2b5:	e8 0a d8 ff ff       	call   8049ac4 <_ZN7Manager16registerInterestEP6ObjectSs>
 804c2ba:	85 c0                	test   %eax,%eax
 804c2bc:	0f 95 c3             	setne  %bl
 804c2bf:	8d 45 ec             	lea    -0x14(%ebp),%eax
 804c2c2:	89 04 24             	mov    %eax,(%esp)
 804c2c5:	e8 76 ca ff ff       	call   8048d40 <_ZNSsD1Ev@plt>
 804c2ca:	84 db                	test   %bl,%bl
 804c2cc:	74 07                	je     804c2d5 <_ZN6Object16registerInterestESs+0x25f>
 804c2ce:	b8 ff ff ff ff       	mov    $0xffffffff,%eax
 804c2d3:	eb 32                	jmp    804c307 <_ZN6Object16registerInterestESs+0x291>
 804c2d5:	8b 45 08             	mov    0x8(%ebp),%eax
 804c2d8:	8b 40 04             	mov    0x4(%eax),%eax
 804c2db:	c1 e0 02             	shl    $0x2,%eax
 804c2de:	03 45 08             	add    0x8(%ebp),%eax
 804c2e1:	8d 50 08             	lea    0x8(%eax),%edx
 804c2e4:	8b 45 0c             	mov    0xc(%ebp),%eax
 804c2e7:	89 44 24 04          	mov    %eax,0x4(%esp)
 804c2eb:	89 14 24             	mov    %edx,(%esp)
 804c2ee:	e8 fd cb ff ff       	call   8048ef0 <_ZNSsaSERKSs@plt>
 804c2f3:	8b 45 08             	mov    0x8(%ebp),%eax
 804c2f6:	8b 40 04             	mov    0x4(%eax),%eax
 804c2f9:	8d 50 01             	lea    0x1(%eax),%edx
 804c2fc:	8b 45 08             	mov    0x8(%ebp),%eax
 804c2ff:	89 50 04             	mov    %edx,0x4(%eax)
 804c302:	b8 00 00 00 00       	mov    $0x0,%eax
 804c307:	83 c4 34             	add    $0x34,%esp
 804c30a:	5b                   	pop    %ebx
 804c30b:	5d                   	pop    %ebp
 804c30c:	c3                   	ret    
 804c30d:	89 c3                	mov    %eax,%ebx
 804c30f:	8d 45 d8             	lea    -0x28(%ebp),%eax
 804c312:	89 04 24             	mov    %eax,(%esp)
 804c315:	e8 26 ca ff ff       	call   8048d40 <_ZNSsD1Ev@plt>
 804c31a:	89 d8                	mov    %ebx,%eax
 804c31c:	89 04 24             	mov    %eax,(%esp)
 804c31f:	e8 9c cb ff ff       	call   8048ec0 <_Unwind_Resume@plt>
 804c324:	89 c3                	mov    %eax,%ebx
 804c326:	8d 45 dc             	lea    -0x24(%ebp),%eax
 804c329:	89 04 24             	mov    %eax,(%esp)
 804c32c:	e8 0f ca ff ff       	call   8048d40 <_ZNSsD1Ev@plt>
 804c331:	89 d8                	mov    %ebx,%eax
 804c333:	89 04 24             	mov    %eax,(%esp)
 804c336:	e8 85 cb ff ff       	call   8048ec0 <_Unwind_Resume@plt>
 804c33b:	89 c3                	mov    %eax,%ebx
 804c33d:	8d 45 e0             	lea    -0x20(%ebp),%eax
 804c340:	89 04 24             	mov    %eax,(%esp)
 804c343:	e8 f8 c9 ff ff       	call   8048d40 <_ZNSsD1Ev@plt>
 804c348:	89 d8                	mov    %ebx,%eax
 804c34a:	89 04 24             	mov    %eax,(%esp)
 804c34d:	e8 6e cb ff ff       	call   8048ec0 <_Unwind_Resume@plt>
 804c352:	89 c3                	mov    %eax,%ebx
 804c354:	8d 45 e4             	lea    -0x1c(%ebp),%eax
 804c357:	89 04 24             	mov    %eax,(%esp)
 804c35a:	e8 e1 c9 ff ff       	call   8048d40 <_ZNSsD1Ev@plt>
 804c35f:	89 d8                	mov    %ebx,%eax
 804c361:	89 04 24             	mov    %eax,(%esp)
 804c364:	e8 57 cb ff ff       	call   8048ec0 <_Unwind_Resume@plt>
 804c369:	89 c3                	mov    %eax,%ebx
 804c36b:	8d 45 e8             	lea    -0x18(%ebp),%eax
 804c36e:	89 04 24             	mov    %eax,(%esp)
 804c371:	e8 ca c9 ff ff       	call   8048d40 <_ZNSsD1Ev@plt>
 804c376:	89 d8                	mov    %ebx,%eax
 804c378:	89 04 24             	mov    %eax,(%esp)
 804c37b:	e8 40 cb ff ff       	call   8048ec0 <_Unwind_Resume@plt>
 804c380:	89 c3                	mov    %eax,%ebx
 804c382:	8d 45 ec             	lea    -0x14(%ebp),%eax
 804c385:	89 04 24             	mov    %eax,(%esp)
 804c388:	e8 b3 c9 ff ff       	call   8048d40 <_ZNSsD1Ev@plt>
 804c38d:	89 d8                	mov    %ebx,%eax
 804c38f:	89 04 24             	mov    %eax,(%esp)
 804c392:	e8 29 cb ff ff       	call   8048ec0 <_Unwind_Resume@plt>
 804c397:	90                   	nop

0804c398 <_ZN6Object18unregisterInterestESs>:
 804c398:	55                   	push   %ebp
 804c399:	89 e5                	mov    %esp,%ebp
 804c39b:	53                   	push   %ebx
 804c39c:	83 ec 44             	sub    $0x44,%esp
 804c39f:	c7 45 e4 ff ff ff ff 	movl   $0xffffffff,-0x1c(%ebp)
 804c3a6:	c7 45 e8 00 00 00 00 	movl   $0x0,-0x18(%ebp)
 804c3ad:	eb 2b                	jmp    804c3da <_ZN6Object18unregisterInterestESs+0x42>
 804c3af:	8b 45 e8             	mov    -0x18(%ebp),%eax
 804c3b2:	c1 e0 02             	shl    $0x2,%eax
 804c3b5:	03 45 08             	add    0x8(%ebp),%eax
 804c3b8:	8d 50 08             	lea    0x8(%eax),%edx
 804c3bb:	8b 45 0c             	mov    0xc(%ebp),%eax
 804c3be:	89 44 24 04          	mov    %eax,0x4(%esp)
 804c3c2:	89 14 24             	mov    %edx,(%esp)
 804c3c5:	e8 b5 dc ff ff       	call   804a07f <_ZSteqIcEN9__gnu_cxx11__enable_ifIXsrSt9__is_charIT_E7__valueEbE6__typeERKSbIS3_St11char_traitsIS3_ESaIS3_EESC_>
 804c3ca:	84 c0                	test   %al,%al
 804c3cc:	74 08                	je     804c3d6 <_ZN6Object18unregisterInterestESs+0x3e>
 804c3ce:	8b 45 e8             	mov    -0x18(%ebp),%eax
 804c3d1:	89 45 e4             	mov    %eax,-0x1c(%ebp)
 804c3d4:	eb 14                	jmp    804c3ea <_ZN6Object18unregisterInterestESs+0x52>
 804c3d6:	83 45 e8 01          	addl   $0x1,-0x18(%ebp)
 804c3da:	8b 45 08             	mov    0x8(%ebp),%eax
 804c3dd:	8b 40 04             	mov    0x4(%eax),%eax
 804c3e0:	3b 45 e8             	cmp    -0x18(%ebp),%eax
 804c3e3:	0f 9f c0             	setg   %al
 804c3e6:	84 c0                	test   %al,%al
 804c3e8:	75 c5                	jne    804c3af <_ZN6Object18unregisterInterestESs+0x17>
 804c3ea:	83 7d e4 ff          	cmpl   $0xffffffff,-0x1c(%ebp)
 804c3ee:	75 0a                	jne    804c3fa <_ZN6Object18unregisterInterestESs+0x62>
 804c3f0:	b8 ff ff ff ff       	mov    $0xffffffff,%eax
 804c3f5:	e9 b5 02 00 00       	jmp    804c6af <_ZN6Object18unregisterInterestESs+0x317>
 804c3fa:	e8 f9 df ff ff       	call   804a3f8 <_ZN11GameManager11getInstanceEv>
 804c3ff:	89 45 f0             	mov    %eax,-0x10(%ebp)
 804c402:	e8 61 e7 ff ff       	call   804ab68 <_ZN12WorldManager11getInstanceEv>
 804c407:	89 45 f4             	mov    %eax,-0xc(%ebp)
 804c40a:	8b 45 08             	mov    0x8(%ebp),%eax
 804c40d:	8b 40 04             	mov    0x4(%eax),%eax
 804c410:	83 f8 64             	cmp    $0x64,%eax
 804c413:	75 0a                	jne    804c41f <_ZN6Object18unregisterInterestESs+0x87>
 804c415:	b8 ff ff ff ff       	mov    $0xffffffff,%eax
 804c41a:	e9 90 02 00 00       	jmp    804c6af <_ZN6Object18unregisterInterestESs+0x317>
